
bomb:     file format elf32-i386


Disassembly of section .init:

080486f4 <_init>:
 80486f4:	53                   	push   %ebx
 80486f5:	83 ec 08             	sub    $0x8,%esp
 80486f8:	e8 13 02 00 00       	call   8048910 <__x86.get_pc_thunk.bx>
 80486fd:	81 c3 03 39 00 00    	add    $0x3903,%ebx
 8048703:	8b 83 fc ff ff ff    	mov    -0x4(%ebx),%eax
 8048709:	85 c0                	test   %eax,%eax
 804870b:	74 05                	je     8048712 <_init+0x1e>
 804870d:	e8 be 01 00 00       	call   80488d0 <__sprintf_chk@plt+0x10>
 8048712:	83 c4 08             	add    $0x8,%esp
 8048715:	5b                   	pop    %ebx
 8048716:	c3                   	ret    

Disassembly of section .plt:

08048720 <read@plt-0x10>:
 8048720:	ff 35 04 c0 04 08    	pushl  0x804c004
 8048726:	ff 25 08 c0 04 08    	jmp    *0x804c008
 804872c:	00 00                	add    %al,(%eax)
	...

08048730 <read@plt>:
 8048730:	ff 25 0c c0 04 08    	jmp    *0x804c00c
 8048736:	68 00 00 00 00       	push   $0x0
 804873b:	e9 e0 ff ff ff       	jmp    8048720 <_init+0x2c>

08048740 <fflush@plt>:
 8048740:	ff 25 10 c0 04 08    	jmp    *0x804c010
 8048746:	68 08 00 00 00       	push   $0x8
 804874b:	e9 d0 ff ff ff       	jmp    8048720 <_init+0x2c>

08048750 <fgets@plt>:
 8048750:	ff 25 14 c0 04 08    	jmp    *0x804c014
 8048756:	68 10 00 00 00       	push   $0x10
 804875b:	e9 c0 ff ff ff       	jmp    8048720 <_init+0x2c>

08048760 <signal@plt>:
 8048760:	ff 25 18 c0 04 08    	jmp    *0x804c018
 8048766:	68 18 00 00 00       	push   $0x18
 804876b:	e9 b0 ff ff ff       	jmp    8048720 <_init+0x2c>

08048770 <sleep@plt>:
 8048770:	ff 25 1c c0 04 08    	jmp    *0x804c01c
 8048776:	68 20 00 00 00       	push   $0x20
 804877b:	e9 a0 ff ff ff       	jmp    8048720 <_init+0x2c>

08048780 <alarm@plt>:
 8048780:	ff 25 20 c0 04 08    	jmp    *0x804c020
 8048786:	68 28 00 00 00       	push   $0x28
 804878b:	e9 90 ff ff ff       	jmp    8048720 <_init+0x2c>

08048790 <__stack_chk_fail@plt>:
 8048790:	ff 25 24 c0 04 08    	jmp    *0x804c024
 8048796:	68 30 00 00 00       	push   $0x30
 804879b:	e9 80 ff ff ff       	jmp    8048720 <_init+0x2c>

080487a0 <strcpy@plt>:
 80487a0:	ff 25 28 c0 04 08    	jmp    *0x804c028
 80487a6:	68 38 00 00 00       	push   $0x38
 80487ab:	e9 70 ff ff ff       	jmp    8048720 <_init+0x2c>

080487b0 <getenv@plt>:
 80487b0:	ff 25 2c c0 04 08    	jmp    *0x804c02c
 80487b6:	68 40 00 00 00       	push   $0x40
 80487bb:	e9 60 ff ff ff       	jmp    8048720 <_init+0x2c>

080487c0 <puts@plt>:
 80487c0:	ff 25 30 c0 04 08    	jmp    *0x804c030
 80487c6:	68 48 00 00 00       	push   $0x48
 80487cb:	e9 50 ff ff ff       	jmp    8048720 <_init+0x2c>

080487d0 <__memmove_chk@plt>:
 80487d0:	ff 25 34 c0 04 08    	jmp    *0x804c034
 80487d6:	68 50 00 00 00       	push   $0x50
 80487db:	e9 40 ff ff ff       	jmp    8048720 <_init+0x2c>

080487e0 <exit@plt>:
 80487e0:	ff 25 38 c0 04 08    	jmp    *0x804c038
 80487e6:	68 58 00 00 00       	push   $0x58
 80487eb:	e9 30 ff ff ff       	jmp    8048720 <_init+0x2c>

080487f0 <__libc_start_main@plt>:
 80487f0:	ff 25 3c c0 04 08    	jmp    *0x804c03c
 80487f6:	68 60 00 00 00       	push   $0x60
 80487fb:	e9 20 ff ff ff       	jmp    8048720 <_init+0x2c>

08048800 <write@plt>:
 8048800:	ff 25 40 c0 04 08    	jmp    *0x804c040
 8048806:	68 68 00 00 00       	push   $0x68
 804880b:	e9 10 ff ff ff       	jmp    8048720 <_init+0x2c>

08048810 <__isoc99_sscanf@plt>:
 8048810:	ff 25 44 c0 04 08    	jmp    *0x804c044
 8048816:	68 70 00 00 00       	push   $0x70
 804881b:	e9 00 ff ff ff       	jmp    8048720 <_init+0x2c>

08048820 <fopen@plt>:
 8048820:	ff 25 48 c0 04 08    	jmp    *0x804c048
 8048826:	68 78 00 00 00       	push   $0x78
 804882b:	e9 f0 fe ff ff       	jmp    8048720 <_init+0x2c>

08048830 <__errno_location@plt>:
 8048830:	ff 25 4c c0 04 08    	jmp    *0x804c04c
 8048836:	68 80 00 00 00       	push   $0x80
 804883b:	e9 e0 fe ff ff       	jmp    8048720 <_init+0x2c>

08048840 <__printf_chk@plt>:
 8048840:	ff 25 50 c0 04 08    	jmp    *0x804c050
 8048846:	68 88 00 00 00       	push   $0x88
 804884b:	e9 d0 fe ff ff       	jmp    8048720 <_init+0x2c>

08048850 <socket@plt>:
 8048850:	ff 25 54 c0 04 08    	jmp    *0x804c054
 8048856:	68 90 00 00 00       	push   $0x90
 804885b:	e9 c0 fe ff ff       	jmp    8048720 <_init+0x2c>

08048860 <__fprintf_chk@plt>:
 8048860:	ff 25 58 c0 04 08    	jmp    *0x804c058
 8048866:	68 98 00 00 00       	push   $0x98
 804886b:	e9 b0 fe ff ff       	jmp    8048720 <_init+0x2c>

08048870 <gethostbyname@plt>:
 8048870:	ff 25 5c c0 04 08    	jmp    *0x804c05c
 8048876:	68 a0 00 00 00       	push   $0xa0
 804887b:	e9 a0 fe ff ff       	jmp    8048720 <_init+0x2c>

08048880 <strtol@plt>:
 8048880:	ff 25 60 c0 04 08    	jmp    *0x804c060
 8048886:	68 a8 00 00 00       	push   $0xa8
 804888b:	e9 90 fe ff ff       	jmp    8048720 <_init+0x2c>

08048890 <connect@plt>:
 8048890:	ff 25 64 c0 04 08    	jmp    *0x804c064
 8048896:	68 b0 00 00 00       	push   $0xb0
 804889b:	e9 80 fe ff ff       	jmp    8048720 <_init+0x2c>

080488a0 <close@plt>:
 80488a0:	ff 25 68 c0 04 08    	jmp    *0x804c068
 80488a6:	68 b8 00 00 00       	push   $0xb8
 80488ab:	e9 70 fe ff ff       	jmp    8048720 <_init+0x2c>

080488b0 <__ctype_b_loc@plt>:
 80488b0:	ff 25 6c c0 04 08    	jmp    *0x804c06c
 80488b6:	68 c0 00 00 00       	push   $0xc0
 80488bb:	e9 60 fe ff ff       	jmp    8048720 <_init+0x2c>

080488c0 <__sprintf_chk@plt>:
 80488c0:	ff 25 70 c0 04 08    	jmp    *0x804c070
 80488c6:	68 c8 00 00 00       	push   $0xc8
 80488cb:	e9 50 fe ff ff       	jmp    8048720 <_init+0x2c>

Disassembly of section .plt.got:

080488d0 <.plt.got>:
 80488d0:	ff 25 fc bf 04 08    	jmp    *0x804bffc
 80488d6:	66 90                	xchg   %ax,%ax

Disassembly of section .text:

080488e0 <_start>:
 80488e0:	31 ed                	xor    %ebp,%ebp
 80488e2:	5e                   	pop    %esi
 80488e3:	89 e1                	mov    %esp,%ecx
 80488e5:	83 e4 f0             	and    $0xfffffff0,%esp
 80488e8:	50                   	push   %eax
 80488e9:	54                   	push   %esp
 80488ea:	52                   	push   %edx
 80488eb:	68 70 9e 04 08       	push   $0x8049e70
 80488f0:	68 10 9e 04 08       	push   $0x8049e10
 80488f5:	51                   	push   %ecx
 80488f6:	56                   	push   %esi
 80488f7:	68 db 89 04 08       	push   $0x80489db
 80488fc:	e8 ef fe ff ff       	call   80487f0 <__libc_start_main@plt>
 8048901:	f4                   	hlt    
 8048902:	66 90                	xchg   %ax,%ax
 8048904:	66 90                	xchg   %ax,%ax
 8048906:	66 90                	xchg   %ax,%ax
 8048908:	66 90                	xchg   %ax,%ax
 804890a:	66 90                	xchg   %ax,%ax
 804890c:	66 90                	xchg   %ax,%ax
 804890e:	66 90                	xchg   %ax,%ax

08048910 <__x86.get_pc_thunk.bx>:
 8048910:	8b 1c 24             	mov    (%esp),%ebx
 8048913:	c3                   	ret    
 8048914:	66 90                	xchg   %ax,%ax
 8048916:	66 90                	xchg   %ax,%ax
 8048918:	66 90                	xchg   %ax,%ax
 804891a:	66 90                	xchg   %ax,%ax
 804891c:	66 90                	xchg   %ax,%ax
 804891e:	66 90                	xchg   %ax,%ax

08048920 <deregister_tm_clones>:
 8048920:	b8 a3 c3 04 08       	mov    $0x804c3a3,%eax
 8048925:	2d a0 c3 04 08       	sub    $0x804c3a0,%eax
 804892a:	83 f8 06             	cmp    $0x6,%eax
 804892d:	76 1a                	jbe    8048949 <deregister_tm_clones+0x29>
 804892f:	b8 00 00 00 00       	mov    $0x0,%eax
 8048934:	85 c0                	test   %eax,%eax
 8048936:	74 11                	je     8048949 <deregister_tm_clones+0x29>
 8048938:	55                   	push   %ebp
 8048939:	89 e5                	mov    %esp,%ebp
 804893b:	83 ec 14             	sub    $0x14,%esp
 804893e:	68 a0 c3 04 08       	push   $0x804c3a0
 8048943:	ff d0                	call   *%eax
 8048945:	83 c4 10             	add    $0x10,%esp
 8048948:	c9                   	leave  
 8048949:	f3 c3                	repz ret 
 804894b:	90                   	nop
 804894c:	8d 74 26 00          	lea    0x0(%esi,%eiz,1),%esi

08048950 <register_tm_clones>:
 8048950:	b8 a0 c3 04 08       	mov    $0x804c3a0,%eax
 8048955:	2d a0 c3 04 08       	sub    $0x804c3a0,%eax
 804895a:	c1 f8 02             	sar    $0x2,%eax
 804895d:	89 c2                	mov    %eax,%edx
 804895f:	c1 ea 1f             	shr    $0x1f,%edx
 8048962:	01 d0                	add    %edx,%eax
 8048964:	d1 f8                	sar    %eax
 8048966:	74 1b                	je     8048983 <register_tm_clones+0x33>
 8048968:	ba 00 00 00 00       	mov    $0x0,%edx
 804896d:	85 d2                	test   %edx,%edx
 804896f:	74 12                	je     8048983 <register_tm_clones+0x33>
 8048971:	55                   	push   %ebp
 8048972:	89 e5                	mov    %esp,%ebp
 8048974:	83 ec 10             	sub    $0x10,%esp
 8048977:	50                   	push   %eax
 8048978:	68 a0 c3 04 08       	push   $0x804c3a0
 804897d:	ff d2                	call   *%edx
 804897f:	83 c4 10             	add    $0x10,%esp
 8048982:	c9                   	leave  
 8048983:	f3 c3                	repz ret 
 8048985:	8d 74 26 00          	lea    0x0(%esi,%eiz,1),%esi
 8048989:	8d bc 27 00 00 00 00 	lea    0x0(%edi,%eiz,1),%edi

08048990 <__do_global_dtors_aux>:
 8048990:	80 3d c8 c3 04 08 00 	cmpb   $0x0,0x804c3c8
 8048997:	75 13                	jne    80489ac <__do_global_dtors_aux+0x1c>
 8048999:	55                   	push   %ebp
 804899a:	89 e5                	mov    %esp,%ebp
 804899c:	83 ec 08             	sub    $0x8,%esp
 804899f:	e8 7c ff ff ff       	call   8048920 <deregister_tm_clones>
 80489a4:	c6 05 c8 c3 04 08 01 	movb   $0x1,0x804c3c8
 80489ab:	c9                   	leave  
 80489ac:	f3 c3                	repz ret 
 80489ae:	66 90                	xchg   %ax,%ax

080489b0 <frame_dummy>:
 80489b0:	b8 10 bf 04 08       	mov    $0x804bf10,%eax
 80489b5:	8b 10                	mov    (%eax),%edx
 80489b7:	85 d2                	test   %edx,%edx
 80489b9:	75 05                	jne    80489c0 <frame_dummy+0x10>
 80489bb:	eb 93                	jmp    8048950 <register_tm_clones>
 80489bd:	8d 76 00             	lea    0x0(%esi),%esi
 80489c0:	ba 00 00 00 00       	mov    $0x0,%edx
 80489c5:	85 d2                	test   %edx,%edx
 80489c7:	74 f2                	je     80489bb <frame_dummy+0xb>
 80489c9:	55                   	push   %ebp
 80489ca:	89 e5                	mov    %esp,%ebp
 80489cc:	83 ec 14             	sub    $0x14,%esp
 80489cf:	50                   	push   %eax
 80489d0:	ff d2                	call   *%edx
 80489d2:	83 c4 10             	add    $0x10,%esp
 80489d5:	c9                   	leave  
 80489d6:	e9 75 ff ff ff       	jmp    8048950 <register_tm_clones>

080489db <main>:
 80489db:	8d 4c 24 04          	lea    0x4(%esp),%ecx
 80489df:	83 e4 f0             	and    $0xfffffff0,%esp
 80489e2:	ff 71 fc             	pushl  -0x4(%ecx)
 80489e5:	55                   	push   %ebp
 80489e6:	89 e5                	mov    %esp,%ebp
 80489e8:	53                   	push   %ebx
 80489e9:	51                   	push   %ecx
 80489ea:	8b 01                	mov    (%ecx),%eax
 80489ec:	8b 59 04             	mov    0x4(%ecx),%ebx
 80489ef:	83 f8 01             	cmp    $0x1,%eax
 80489f2:	75 0c                	jne    8048a00 <main+0x25>
 80489f4:	a1 c0 c3 04 08       	mov    0x804c3c0,%eax
 80489f9:	a3 d0 c3 04 08       	mov    %eax,0x804c3d0
 80489fe:	eb 5b                	jmp    8048a5b <main+0x80>
 8048a00:	83 f8 02             	cmp    $0x2,%eax
 8048a03:	75 39                	jne    8048a3e <main+0x63>
 8048a05:	83 ec 08             	sub    $0x8,%esp
 8048a08:	68 a8 9e 04 08       	push   $0x8049ea8
 8048a0d:	ff 73 04             	pushl  0x4(%ebx)
 8048a10:	e8 0b fe ff ff       	call   8048820 <fopen@plt>
 8048a15:	a3 d0 c3 04 08       	mov    %eax,0x804c3d0
 8048a1a:	83 c4 10             	add    $0x10,%esp
 8048a1d:	85 c0                	test   %eax,%eax
 8048a1f:	75 3a                	jne    8048a5b <main+0x80>
 8048a21:	ff 73 04             	pushl  0x4(%ebx)
 8048a24:	ff 33                	pushl  (%ebx)
 8048a26:	68 aa 9e 04 08       	push   $0x8049eaa
 8048a2b:	6a 01                	push   $0x1
 8048a2d:	e8 0e fe ff ff       	call   8048840 <__printf_chk@plt>
 8048a32:	c7 04 24 08 00 00 00 	movl   $0x8,(%esp)
 8048a39:	e8 a2 fd ff ff       	call   80487e0 <exit@plt>
 8048a3e:	83 ec 04             	sub    $0x4,%esp
 8048a41:	ff 33                	pushl  (%ebx)
 8048a43:	68 c7 9e 04 08       	push   $0x8049ec7
 8048a48:	6a 01                	push   $0x1
 8048a4a:	e8 f1 fd ff ff       	call   8048840 <__printf_chk@plt>
 8048a4f:	c7 04 24 08 00 00 00 	movl   $0x8,(%esp)
 8048a56:	e8 85 fd ff ff       	call   80487e0 <exit@plt>
 8048a5b:	e8 d2 05 00 00       	call   8049032 <initialize_bomb>
 8048a60:	83 ec 0c             	sub    $0xc,%esp
 8048a63:	68 2c 9f 04 08       	push   $0x8049f2c
 8048a68:	e8 53 fd ff ff       	call   80487c0 <puts@plt>
 8048a6d:	c7 04 24 68 9f 04 08 	movl   $0x8049f68,(%esp)
 8048a74:	e8 47 fd ff ff       	call   80487c0 <puts@plt>
 8048a79:	e8 a6 06 00 00       	call   8049124 <read_line>
 8048a7e:	89 04 24             	mov    %eax,(%esp)
 8048a81:	e8 ad 00 00 00       	call   8048b33 <phase_1>
 8048a86:	e8 92 07 00 00       	call   804921d <phase_defused>
 8048a8b:	c7 04 24 94 9f 04 08 	movl   $0x8049f94,(%esp)
 8048a92:	e8 29 fd ff ff       	call   80487c0 <puts@plt>
 8048a97:	e8 88 06 00 00       	call   8049124 <read_line>
 8048a9c:	89 04 24             	mov    %eax,(%esp)
 8048a9f:	e8 b0 00 00 00       	call   8048b54 <phase_2>
 8048aa4:	e8 74 07 00 00       	call   804921d <phase_defused>
 8048aa9:	c7 04 24 e1 9e 04 08 	movl   $0x8049ee1,(%esp)
 8048ab0:	e8 0b fd ff ff       	call   80487c0 <puts@plt>
 8048ab5:	e8 6a 06 00 00       	call   8049124 <read_line>
 8048aba:	89 04 24             	mov    %eax,(%esp)
 8048abd:	e8 f5 00 00 00       	call   8048bb7 <phase_3>
 8048ac2:	e8 56 07 00 00       	call   804921d <phase_defused>
 8048ac7:	c7 04 24 ff 9e 04 08 	movl   $0x8049eff,(%esp)
 8048ace:	e8 ed fc ff ff       	call   80487c0 <puts@plt>
 8048ad3:	e8 4c 06 00 00       	call   8049124 <read_line>
 8048ad8:	89 04 24             	mov    %eax,(%esp)
 8048adb:	e8 c3 01 00 00       	call   8048ca3 <phase_4>
 8048ae0:	e8 38 07 00 00       	call   804921d <phase_defused>
 8048ae5:	c7 04 24 c0 9f 04 08 	movl   $0x8049fc0,(%esp)
 8048aec:	e8 cf fc ff ff       	call   80487c0 <puts@plt>
 8048af1:	e8 2e 06 00 00       	call   8049124 <read_line>
 8048af6:	89 04 24             	mov    %eax,(%esp)
 8048af9:	e8 17 02 00 00       	call   8048d15 <phase_5>
 8048afe:	e8 1a 07 00 00       	call   804921d <phase_defused>
 8048b03:	c7 04 24 0e 9f 04 08 	movl   $0x8049f0e,(%esp)
 8048b0a:	e8 b1 fc ff ff       	call   80487c0 <puts@plt>
 8048b0f:	e8 10 06 00 00       	call   8049124 <read_line>
 8048b14:	89 04 24             	mov    %eax,(%esp)
 8048b17:	e8 86 02 00 00       	call   8048da2 <phase_6>
 8048b1c:	e8 fc 06 00 00       	call   804921d <phase_defused>
 8048b21:	83 c4 10             	add    $0x10,%esp
 8048b24:	b8 00 00 00 00       	mov    $0x0,%eax
 8048b29:	8d 65 f8             	lea    -0x8(%ebp),%esp
 8048b2c:	59                   	pop    %ecx
 8048b2d:	5b                   	pop    %ebx
 8048b2e:	5d                   	pop    %ebp
 8048b2f:	8d 61 fc             	lea    -0x4(%ecx),%esp
 8048b32:	c3                   	ret    

08048b33 <phase_1>:
 8048b33:	83 ec 14             	sub    $0x14,%esp
 8048b36:	68 e4 9f 04 08       	push   $0x8049fe4
 8048b3b:	ff 74 24 1c          	pushl  0x1c(%esp)
 8048b3f:	e8 89 04 00 00       	call   8048fcd <strings_not_equal>
 8048b44:	83 c4 10             	add    $0x10,%esp
 8048b47:	85 c0                	test   %eax,%eax
 8048b49:	74 05                	je     8048b50 <phase_1+0x1d>
 8048b4b:	e8 74 05 00 00       	call   80490c4 <explode_bomb>
 8048b50:	83 c4 0c             	add    $0xc,%esp
 8048b53:	c3                   	ret    

08048b54 <phase_2>:
 8048b54:	56                   	push   %esi
 8048b55:	53                   	push   %ebx
 8048b56:	83 ec 2c             	sub    $0x2c,%esp
 8048b59:	65 a1 14 00 00 00    	mov    %gs:0x14,%eax
 8048b5f:	89 44 24 24          	mov    %eax,0x24(%esp)
 8048b63:	31 c0                	xor    %eax,%eax
 8048b65:	8d 44 24 0c          	lea    0xc(%esp),%eax
 8048b69:	50                   	push   %eax
 8048b6a:	ff 74 24 3c          	pushl  0x3c(%esp)
 8048b6e:	e8 76 05 00 00       	call   80490e9 <read_six_numbers>
 8048b73:	83 c4 10             	add    $0x10,%esp
 8048b76:	83 7c 24 04 01       	cmpl   $0x1,0x4(%esp)
 8048b7b:	74 05                	je     8048b82 <phase_2+0x2e>
 8048b7d:	e8 42 05 00 00       	call   80490c4 <explode_bomb>
 8048b82:	8d 5c 24 04          	lea    0x4(%esp),%ebx
 8048b86:	8d 74 24 18          	lea    0x18(%esp),%esi
 8048b8a:	8b 03                	mov    (%ebx),%eax
 8048b8c:	01 c0                	add    %eax,%eax
 8048b8e:	39 43 04             	cmp    %eax,0x4(%ebx)
 8048b91:	74 05                	je     8048b98 <phase_2+0x44>
 8048b93:	e8 2c 05 00 00       	call   80490c4 <explode_bomb>
 8048b98:	83 c3 04             	add    $0x4,%ebx
 8048b9b:	39 f3                	cmp    %esi,%ebx
 8048b9d:	75 eb                	jne    8048b8a <phase_2+0x36>
 8048b9f:	8b 44 24 1c          	mov    0x1c(%esp),%eax
 8048ba3:	65 33 05 14 00 00 00 	xor    %gs:0x14,%eax
 8048baa:	74 05                	je     8048bb1 <phase_2+0x5d>
 8048bac:	e8 df fb ff ff       	call   8048790 <__stack_chk_fail@plt>
 8048bb1:	83 c4 24             	add    $0x24,%esp
 8048bb4:	5b                   	pop    %ebx
 8048bb5:	5e                   	pop    %esi
 8048bb6:	c3                   	ret    

08048bb7 <phase_3>:
 8048bb7:	83 ec 1c             	sub    $0x1c,%esp
 8048bba:	65 a1 14 00 00 00    	mov    %gs:0x14,%eax
 8048bc0:	89 44 24 0c          	mov    %eax,0xc(%esp)
 8048bc4:	31 c0                	xor    %eax,%eax
 8048bc6:	8d 44 24 08          	lea    0x8(%esp),%eax
 8048bca:	50                   	push   %eax
 8048bcb:	8d 44 24 08          	lea    0x8(%esp),%eax
 8048bcf:	50                   	push   %eax
 8048bd0:	68 af a1 04 08       	push   $0x804a1af
 8048bd5:	ff 74 24 2c          	pushl  0x2c(%esp)
 8048bd9:	e8 32 fc ff ff       	call   8048810 <__isoc99_sscanf@plt>
 8048bde:	83 c4 10             	add    $0x10,%esp
 8048be1:	83 f8 01             	cmp    $0x1,%eax
 8048be4:	7f 05                	jg     8048beb <phase_3+0x34>
 8048be6:	e8 d9 04 00 00       	call   80490c4 <explode_bomb>
 8048beb:	83 7c 24 04 07       	cmpl   $0x7,0x4(%esp)
 8048bf0:	77 3c                	ja     8048c2e <phase_3+0x77>
 8048bf2:	8b 44 24 04          	mov    0x4(%esp),%eax
 8048bf6:	ff 24 85 40 a0 04 08 	jmp    *0x804a040(,%eax,4)
 8048bfd:	b8 4d 03 00 00       	mov    $0x34d,%eax
 8048c02:	eb 3b                	jmp    8048c3f <phase_3+0x88>
 8048c04:	b8 9c 02 00 00       	mov    $0x29c,%eax
 8048c09:	eb 34                	jmp    8048c3f <phase_3+0x88>
 8048c0b:	b8 a5 03 00 00       	mov    $0x3a5,%eax
 8048c10:	eb 2d                	jmp    8048c3f <phase_3+0x88>
 8048c12:	b8 4c 03 00 00       	mov    $0x34c,%eax
 8048c17:	eb 26                	jmp    8048c3f <phase_3+0x88>
 8048c19:	b8 7f 03 00 00       	mov    $0x37f,%eax
 8048c1e:	eb 1f                	jmp    8048c3f <phase_3+0x88>
 8048c20:	b8 3c 01 00 00       	mov    $0x13c,%eax
 8048c25:	eb 18                	jmp    8048c3f <phase_3+0x88>
 8048c27:	b8 a0 03 00 00       	mov    $0x3a0,%eax
 8048c2c:	eb 11                	jmp    8048c3f <phase_3+0x88>
 8048c2e:	e8 91 04 00 00       	call   80490c4 <explode_bomb>
 8048c33:	b8 00 00 00 00       	mov    $0x0,%eax
 8048c38:	eb 05                	jmp    8048c3f <phase_3+0x88>
 8048c3a:	b8 9c 01 00 00       	mov    $0x19c,%eax
 8048c3f:	3b 44 24 08          	cmp    0x8(%esp),%eax
 8048c43:	74 05                	je     8048c4a <phase_3+0x93>
 8048c45:	e8 7a 04 00 00       	call   80490c4 <explode_bomb>
 8048c4a:	8b 44 24 0c          	mov    0xc(%esp),%eax
 8048c4e:	65 33 05 14 00 00 00 	xor    %gs:0x14,%eax
 8048c55:	74 05                	je     8048c5c <phase_3+0xa5>
 8048c57:	e8 34 fb ff ff       	call   8048790 <__stack_chk_fail@plt>
 8048c5c:	83 c4 1c             	add    $0x1c,%esp
 8048c5f:	c3                   	ret    

08048c60 <func4>:
 8048c60:	57                   	push   %edi
 8048c61:	56                   	push   %esi
 8048c62:	53                   	push   %ebx
 8048c63:	8b 5c 24 10          	mov    0x10(%esp),%ebx
 8048c67:	8b 7c 24 14          	mov    0x14(%esp),%edi
 8048c6b:	85 db                	test   %ebx,%ebx
 8048c6d:	7e 2b                	jle    8048c9a <func4+0x3a>
 8048c6f:	89 f8                	mov    %edi,%eax
 8048c71:	83 fb 01             	cmp    $0x1,%ebx
 8048c74:	74 29                	je     8048c9f <func4+0x3f>
 8048c76:	83 ec 08             	sub    $0x8,%esp
 8048c79:	57                   	push   %edi
 8048c7a:	8d 43 ff             	lea    -0x1(%ebx),%eax
 8048c7d:	50                   	push   %eax
 8048c7e:	e8 dd ff ff ff       	call   8048c60 <func4>
 8048c83:	83 c4 08             	add    $0x8,%esp
 8048c86:	8d 34 07             	lea    (%edi,%eax,1),%esi
 8048c89:	57                   	push   %edi
 8048c8a:	83 eb 02             	sub    $0x2,%ebx
 8048c8d:	53                   	push   %ebx
 8048c8e:	e8 cd ff ff ff       	call   8048c60 <func4>
 8048c93:	83 c4 10             	add    $0x10,%esp
 8048c96:	01 f0                	add    %esi,%eax
 8048c98:	eb 05                	jmp    8048c9f <func4+0x3f>
 8048c9a:	b8 00 00 00 00       	mov    $0x0,%eax
 8048c9f:	5b                   	pop    %ebx
 8048ca0:	5e                   	pop    %esi
 8048ca1:	5f                   	pop    %edi
 8048ca2:	c3                   	ret    

08048ca3 <phase_4>:
 8048ca3:	83 ec 1c             	sub    $0x1c,%esp
 8048ca6:	65 a1 14 00 00 00    	mov    %gs:0x14,%eax
 8048cac:	89 44 24 0c          	mov    %eax,0xc(%esp)
 8048cb0:	31 c0                	xor    %eax,%eax
 8048cb2:	8d 44 24 04          	lea    0x4(%esp),%eax
 8048cb6:	50                   	push   %eax
 8048cb7:	8d 44 24 0c          	lea    0xc(%esp),%eax
 8048cbb:	50                   	push   %eax
 8048cbc:	68 af a1 04 08       	push   $0x804a1af
 8048cc1:	ff 74 24 2c          	pushl  0x2c(%esp)
 8048cc5:	e8 46 fb ff ff       	call   8048810 <__isoc99_sscanf@plt>
 8048cca:	83 c4 10             	add    $0x10,%esp
 8048ccd:	83 f8 02             	cmp    $0x2,%eax
 8048cd0:	75 0c                	jne    8048cde <phase_4+0x3b>
 8048cd2:	8b 44 24 04          	mov    0x4(%esp),%eax
 8048cd6:	83 e8 02             	sub    $0x2,%eax
 8048cd9:	83 f8 02             	cmp    $0x2,%eax
 8048cdc:	76 05                	jbe    8048ce3 <phase_4+0x40>
 8048cde:	e8 e1 03 00 00       	call   80490c4 <explode_bomb>
 8048ce3:	83 ec 08             	sub    $0x8,%esp
 8048ce6:	ff 74 24 0c          	pushl  0xc(%esp)
 8048cea:	6a 05                	push   $0x5
 8048cec:	e8 6f ff ff ff       	call   8048c60 <func4>
 8048cf1:	83 c4 10             	add    $0x10,%esp
 8048cf4:	3b 44 24 08          	cmp    0x8(%esp),%eax
 8048cf8:	74 05                	je     8048cff <phase_4+0x5c>
 8048cfa:	e8 c5 03 00 00       	call   80490c4 <explode_bomb>
 8048cff:	8b 44 24 0c          	mov    0xc(%esp),%eax
 8048d03:	65 33 05 14 00 00 00 	xor    %gs:0x14,%eax
 8048d0a:	74 05                	je     8048d11 <phase_4+0x6e>
 8048d0c:	e8 7f fa ff ff       	call   8048790 <__stack_chk_fail@plt>
 8048d11:	83 c4 1c             	add    $0x1c,%esp
 8048d14:	c3                   	ret    

08048d15 <phase_5>:
 8048d15:	83 ec 1c             	sub    $0x1c,%esp
 8048d18:	65 a1 14 00 00 00    	mov    %gs:0x14,%eax
 8048d1e:	89 44 24 0c          	mov    %eax,0xc(%esp)
 8048d22:	31 c0                	xor    %eax,%eax
 8048d24:	8d 44 24 08          	lea    0x8(%esp),%eax
 8048d28:	50                   	push   %eax
 8048d29:	8d 44 24 08          	lea    0x8(%esp),%eax
 8048d2d:	50                   	push   %eax
 8048d2e:	68 af a1 04 08       	push   $0x804a1af
 8048d33:	ff 74 24 2c          	pushl  0x2c(%esp)
 8048d37:	e8 d4 fa ff ff       	call   8048810 <__isoc99_sscanf@plt>
 8048d3c:	83 c4 10             	add    $0x10,%esp
 8048d3f:	83 f8 01             	cmp    $0x1,%eax
 8048d42:	7f 05                	jg     8048d49 <phase_5+0x34>
 8048d44:	e8 7b 03 00 00       	call   80490c4 <explode_bomb>
 8048d49:	8b 44 24 04          	mov    0x4(%esp),%eax
 8048d4d:	83 e0 0f             	and    $0xf,%eax
 8048d50:	89 44 24 04          	mov    %eax,0x4(%esp)
 8048d54:	83 f8 0f             	cmp    $0xf,%eax
 8048d57:	74 2e                	je     8048d87 <phase_5+0x72>
 8048d59:	b9 00 00 00 00       	mov    $0x0,%ecx
 8048d5e:	ba 00 00 00 00       	mov    $0x0,%edx
 8048d63:	83 c2 01             	add    $0x1,%edx
 8048d66:	8b 04 85 60 a0 04 08 	mov    0x804a060(,%eax,4),%eax
 8048d6d:	01 c1                	add    %eax,%ecx
 8048d6f:	83 f8 0f             	cmp    $0xf,%eax
 8048d72:	75 ef                	jne    8048d63 <phase_5+0x4e>
 8048d74:	c7 44 24 04 0f 00 00 	movl   $0xf,0x4(%esp)
 8048d7b:	00 
 8048d7c:	83 fa 0f             	cmp    $0xf,%edx
 8048d7f:	75 06                	jne    8048d87 <phase_5+0x72>
 8048d81:	3b 4c 24 08          	cmp    0x8(%esp),%ecx
 8048d85:	74 05                	je     8048d8c <phase_5+0x77>
 8048d87:	e8 38 03 00 00       	call   80490c4 <explode_bomb>
 8048d8c:	8b 44 24 0c          	mov    0xc(%esp),%eax
 8048d90:	65 33 05 14 00 00 00 	xor    %gs:0x14,%eax
 8048d97:	74 05                	je     8048d9e <phase_5+0x89>
 8048d99:	e8 f2 f9 ff ff       	call   8048790 <__stack_chk_fail@plt>
 8048d9e:	83 c4 1c             	add    $0x1c,%esp
 8048da1:	c3                   	ret    

08048da2 <phase_6>:
 8048da2:	56                   	push   %esi
 8048da3:	53                   	push   %ebx
 8048da4:	83 ec 4c             	sub    $0x4c,%esp
 8048da7:	65 a1 14 00 00 00    	mov    %gs:0x14,%eax
 8048dad:	89 44 24 44          	mov    %eax,0x44(%esp)
 8048db1:	31 c0                	xor    %eax,%eax
 8048db3:	8d 44 24 14          	lea    0x14(%esp),%eax
 8048db7:	50                   	push   %eax
 8048db8:	ff 74 24 5c          	pushl  0x5c(%esp)
 8048dbc:	e8 28 03 00 00       	call   80490e9 <read_six_numbers>
 8048dc1:	83 c4 10             	add    $0x10,%esp
 8048dc4:	be 00 00 00 00       	mov    $0x0,%esi
 8048dc9:	8b 44 b4 0c          	mov    0xc(%esp,%esi,4),%eax
 8048dcd:	83 e8 01             	sub    $0x1,%eax
 8048dd0:	83 f8 05             	cmp    $0x5,%eax
 8048dd3:	76 05                	jbe    8048dda <phase_6+0x38>
 8048dd5:	e8 ea 02 00 00       	call   80490c4 <explode_bomb>
 8048dda:	83 c6 01             	add    $0x1,%esi
 8048ddd:	83 fe 06             	cmp    $0x6,%esi
 8048de0:	74 33                	je     8048e15 <phase_6+0x73>
 8048de2:	89 f3                	mov    %esi,%ebx
 8048de4:	8b 44 9c 0c          	mov    0xc(%esp,%ebx,4),%eax
 8048de8:	39 44 b4 08          	cmp    %eax,0x8(%esp,%esi,4)
 8048dec:	75 05                	jne    8048df3 <phase_6+0x51>
 8048dee:	e8 d1 02 00 00       	call   80490c4 <explode_bomb>
 8048df3:	83 c3 01             	add    $0x1,%ebx
 8048df6:	83 fb 05             	cmp    $0x5,%ebx
 8048df9:	7e e9                	jle    8048de4 <phase_6+0x42>
 8048dfb:	eb cc                	jmp    8048dc9 <phase_6+0x27>
 8048dfd:	8b 52 08             	mov    0x8(%edx),%edx
 8048e00:	83 c0 01             	add    $0x1,%eax
 8048e03:	39 c8                	cmp    %ecx,%eax
 8048e05:	75 f6                	jne    8048dfd <phase_6+0x5b>
 8048e07:	89 54 b4 24          	mov    %edx,0x24(%esp,%esi,4)
 8048e0b:	83 c3 01             	add    $0x1,%ebx
 8048e0e:	83 fb 06             	cmp    $0x6,%ebx
 8048e11:	75 07                	jne    8048e1a <phase_6+0x78>
 8048e13:	eb 1c                	jmp    8048e31 <phase_6+0x8f>
 8048e15:	bb 00 00 00 00       	mov    $0x0,%ebx
 8048e1a:	89 de                	mov    %ebx,%esi
 8048e1c:	8b 4c 9c 0c          	mov    0xc(%esp,%ebx,4),%ecx
 8048e20:	b8 01 00 00 00       	mov    $0x1,%eax
 8048e25:	ba 3c c1 04 08       	mov    $0x804c13c,%edx
 8048e2a:	83 f9 01             	cmp    $0x1,%ecx
 8048e2d:	7f ce                	jg     8048dfd <phase_6+0x5b>
 8048e2f:	eb d6                	jmp    8048e07 <phase_6+0x65>
 8048e31:	8b 5c 24 24          	mov    0x24(%esp),%ebx
 8048e35:	8d 44 24 24          	lea    0x24(%esp),%eax
 8048e39:	8d 74 24 38          	lea    0x38(%esp),%esi
 8048e3d:	89 d9                	mov    %ebx,%ecx
 8048e3f:	8b 50 04             	mov    0x4(%eax),%edx
 8048e42:	89 51 08             	mov    %edx,0x8(%ecx)
 8048e45:	83 c0 04             	add    $0x4,%eax
 8048e48:	89 d1                	mov    %edx,%ecx
 8048e4a:	39 f0                	cmp    %esi,%eax
 8048e4c:	75 f1                	jne    8048e3f <phase_6+0x9d>
 8048e4e:	c7 42 08 00 00 00 00 	movl   $0x0,0x8(%edx)
 8048e55:	be 05 00 00 00       	mov    $0x5,%esi
 8048e5a:	8b 43 08             	mov    0x8(%ebx),%eax
 8048e5d:	8b 00                	mov    (%eax),%eax
 8048e5f:	39 03                	cmp    %eax,(%ebx)
 8048e61:	7d 05                	jge    8048e68 <phase_6+0xc6>
 8048e63:	e8 5c 02 00 00       	call   80490c4 <explode_bomb>
 8048e68:	8b 5b 08             	mov    0x8(%ebx),%ebx
 8048e6b:	83 ee 01             	sub    $0x1,%esi
 8048e6e:	75 ea                	jne    8048e5a <phase_6+0xb8>
 8048e70:	8b 44 24 3c          	mov    0x3c(%esp),%eax
 8048e74:	65 33 05 14 00 00 00 	xor    %gs:0x14,%eax
 8048e7b:	74 05                	je     8048e82 <phase_6+0xe0>
 8048e7d:	e8 0e f9 ff ff       	call   8048790 <__stack_chk_fail@plt>
 8048e82:	83 c4 44             	add    $0x44,%esp
 8048e85:	5b                   	pop    %ebx
 8048e86:	5e                   	pop    %esi
 8048e87:	c3                   	ret    

08048e88 <fun7>:
 8048e88:	53                   	push   %ebx
 8048e89:	83 ec 08             	sub    $0x8,%esp
 8048e8c:	8b 54 24 10          	mov    0x10(%esp),%edx
 8048e90:	8b 4c 24 14          	mov    0x14(%esp),%ecx
 8048e94:	85 d2                	test   %edx,%edx
 8048e96:	74 37                	je     8048ecf <fun7+0x47>
 8048e98:	8b 1a                	mov    (%edx),%ebx
 8048e9a:	39 cb                	cmp    %ecx,%ebx
 8048e9c:	7e 13                	jle    8048eb1 <fun7+0x29>
 8048e9e:	83 ec 08             	sub    $0x8,%esp
 8048ea1:	51                   	push   %ecx
 8048ea2:	ff 72 04             	pushl  0x4(%edx)
 8048ea5:	e8 de ff ff ff       	call   8048e88 <fun7>
 8048eaa:	83 c4 10             	add    $0x10,%esp
 8048ead:	01 c0                	add    %eax,%eax
 8048eaf:	eb 23                	jmp    8048ed4 <fun7+0x4c>
 8048eb1:	b8 00 00 00 00       	mov    $0x0,%eax
 8048eb6:	39 cb                	cmp    %ecx,%ebx
 8048eb8:	74 1a                	je     8048ed4 <fun7+0x4c>
 8048eba:	83 ec 08             	sub    $0x8,%esp
 8048ebd:	51                   	push   %ecx
 8048ebe:	ff 72 08             	pushl  0x8(%edx)
 8048ec1:	e8 c2 ff ff ff       	call   8048e88 <fun7>
 8048ec6:	83 c4 10             	add    $0x10,%esp
 8048ec9:	8d 44 00 01          	lea    0x1(%eax,%eax,1),%eax
 8048ecd:	eb 05                	jmp    8048ed4 <fun7+0x4c>
 8048ecf:	b8 ff ff ff ff       	mov    $0xffffffff,%eax
 8048ed4:	83 c4 08             	add    $0x8,%esp
 8048ed7:	5b                   	pop    %ebx
 8048ed8:	c3                   	ret    

08048ed9 <secret_phase>:
 8048ed9:	53                   	push   %ebx
 8048eda:	83 ec 08             	sub    $0x8,%esp
 8048edd:	e8 42 02 00 00       	call   8049124 <read_line>
 8048ee2:	83 ec 04             	sub    $0x4,%esp
 8048ee5:	6a 0a                	push   $0xa
 8048ee7:	6a 00                	push   $0x0
 8048ee9:	50                   	push   %eax
 8048eea:	e8 91 f9 ff ff       	call   8048880 <strtol@plt>
 8048eef:	89 c3                	mov    %eax,%ebx
 8048ef1:	8d 40 ff             	lea    -0x1(%eax),%eax
 8048ef4:	83 c4 10             	add    $0x10,%esp
 8048ef7:	3d e8 03 00 00       	cmp    $0x3e8,%eax
 8048efc:	76 05                	jbe    8048f03 <secret_phase+0x2a>
 8048efe:	e8 c1 01 00 00       	call   80490c4 <explode_bomb>
 8048f03:	83 ec 08             	sub    $0x8,%esp
 8048f06:	53                   	push   %ebx
 8048f07:	68 88 c0 04 08       	push   $0x804c088
 8048f0c:	e8 77 ff ff ff       	call   8048e88 <fun7>
 8048f11:	83 c4 10             	add    $0x10,%esp
 8048f14:	83 f8 03             	cmp    $0x3,%eax
 8048f17:	74 05                	je     8048f1e <secret_phase+0x45>
 8048f19:	e8 a6 01 00 00       	call   80490c4 <explode_bomb>
 8048f1e:	83 ec 0c             	sub    $0xc,%esp
 8048f21:	68 18 a0 04 08       	push   $0x804a018
 8048f26:	e8 95 f8 ff ff       	call   80487c0 <puts@plt>
 8048f2b:	e8 ed 02 00 00       	call   804921d <phase_defused>
 8048f30:	83 c4 18             	add    $0x18,%esp
 8048f33:	5b                   	pop    %ebx
 8048f34:	c3                   	ret    

08048f35 <sig_handler>:
 8048f35:	83 ec 18             	sub    $0x18,%esp
 8048f38:	68 a0 a0 04 08       	push   $0x804a0a0
 8048f3d:	e8 7e f8 ff ff       	call   80487c0 <puts@plt>
 8048f42:	c7 04 24 03 00 00 00 	movl   $0x3,(%esp)
 8048f49:	e8 22 f8 ff ff       	call   8048770 <sleep@plt>
 8048f4e:	83 c4 08             	add    $0x8,%esp
 8048f51:	68 62 a1 04 08       	push   $0x804a162
 8048f56:	6a 01                	push   $0x1
 8048f58:	e8 e3 f8 ff ff       	call   8048840 <__printf_chk@plt>
 8048f5d:	83 c4 04             	add    $0x4,%esp
 8048f60:	ff 35 c4 c3 04 08    	pushl  0x804c3c4
 8048f66:	e8 d5 f7 ff ff       	call   8048740 <fflush@plt>
 8048f6b:	c7 04 24 01 00 00 00 	movl   $0x1,(%esp)
 8048f72:	e8 f9 f7 ff ff       	call   8048770 <sleep@plt>
 8048f77:	c7 04 24 6a a1 04 08 	movl   $0x804a16a,(%esp)
 8048f7e:	e8 3d f8 ff ff       	call   80487c0 <puts@plt>
 8048f83:	c7 04 24 10 00 00 00 	movl   $0x10,(%esp)
 8048f8a:	e8 51 f8 ff ff       	call   80487e0 <exit@plt>

08048f8f <invalid_phase>:
 8048f8f:	83 ec 10             	sub    $0x10,%esp
 8048f92:	ff 74 24 14          	pushl  0x14(%esp)
 8048f96:	68 72 a1 04 08       	push   $0x804a172
 8048f9b:	6a 01                	push   $0x1
 8048f9d:	e8 9e f8 ff ff       	call   8048840 <__printf_chk@plt>
 8048fa2:	c7 04 24 08 00 00 00 	movl   $0x8,(%esp)
 8048fa9:	e8 32 f8 ff ff       	call   80487e0 <exit@plt>

08048fae <string_length>:
 8048fae:	8b 54 24 04          	mov    0x4(%esp),%edx
 8048fb2:	80 3a 00             	cmpb   $0x0,(%edx)
 8048fb5:	74 10                	je     8048fc7 <string_length+0x19>
 8048fb7:	b8 00 00 00 00       	mov    $0x0,%eax
 8048fbc:	83 c0 01             	add    $0x1,%eax
 8048fbf:	80 3c 02 00          	cmpb   $0x0,(%edx,%eax,1)
 8048fc3:	75 f7                	jne    8048fbc <string_length+0xe>
 8048fc5:	f3 c3                	repz ret 
 8048fc7:	b8 00 00 00 00       	mov    $0x0,%eax
 8048fcc:	c3                   	ret    

08048fcd <strings_not_equal>:
 8048fcd:	57                   	push   %edi
 8048fce:	56                   	push   %esi
 8048fcf:	53                   	push   %ebx
 8048fd0:	8b 5c 24 10          	mov    0x10(%esp),%ebx
 8048fd4:	8b 74 24 14          	mov    0x14(%esp),%esi
 8048fd8:	53                   	push   %ebx
 8048fd9:	e8 d0 ff ff ff       	call   8048fae <string_length>
 8048fde:	89 c7                	mov    %eax,%edi
 8048fe0:	89 34 24             	mov    %esi,(%esp)
 8048fe3:	e8 c6 ff ff ff       	call   8048fae <string_length>
 8048fe8:	83 c4 04             	add    $0x4,%esp
 8048feb:	ba 01 00 00 00       	mov    $0x1,%edx
 8048ff0:	39 c7                	cmp    %eax,%edi
 8048ff2:	75 38                	jne    804902c <strings_not_equal+0x5f>
 8048ff4:	0f b6 03             	movzbl (%ebx),%eax
 8048ff7:	84 c0                	test   %al,%al
 8048ff9:	74 1e                	je     8049019 <strings_not_equal+0x4c>
 8048ffb:	3a 06                	cmp    (%esi),%al
 8048ffd:	74 06                	je     8049005 <strings_not_equal+0x38>
 8048fff:	eb 1f                	jmp    8049020 <strings_not_equal+0x53>
 8049001:	3a 06                	cmp    (%esi),%al
 8049003:	75 22                	jne    8049027 <strings_not_equal+0x5a>
 8049005:	83 c3 01             	add    $0x1,%ebx
 8049008:	83 c6 01             	add    $0x1,%esi
 804900b:	0f b6 03             	movzbl (%ebx),%eax
 804900e:	84 c0                	test   %al,%al
 8049010:	75 ef                	jne    8049001 <strings_not_equal+0x34>
 8049012:	ba 00 00 00 00       	mov    $0x0,%edx
 8049017:	eb 13                	jmp    804902c <strings_not_equal+0x5f>
 8049019:	ba 00 00 00 00       	mov    $0x0,%edx
 804901e:	eb 0c                	jmp    804902c <strings_not_equal+0x5f>
 8049020:	ba 01 00 00 00       	mov    $0x1,%edx
 8049025:	eb 05                	jmp    804902c <strings_not_equal+0x5f>
 8049027:	ba 01 00 00 00       	mov    $0x1,%edx
 804902c:	89 d0                	mov    %edx,%eax
 804902e:	5b                   	pop    %ebx
 804902f:	5e                   	pop    %esi
 8049030:	5f                   	pop    %edi
 8049031:	c3                   	ret    

08049032 <initialize_bomb>:
 8049032:	83 ec 14             	sub    $0x14,%esp
 8049035:	68 35 8f 04 08       	push   $0x8048f35
 804903a:	6a 02                	push   $0x2
 804903c:	e8 1f f7 ff ff       	call   8048760 <signal@plt>
 8049041:	83 c4 1c             	add    $0x1c,%esp
 8049044:	c3                   	ret    

08049045 <initialize_bomb_solve>:
 8049045:	f3 c3                	repz ret 

08049047 <blank_line>:
 8049047:	56                   	push   %esi
 8049048:	53                   	push   %ebx
 8049049:	83 ec 04             	sub    $0x4,%esp
 804904c:	8b 74 24 10          	mov    0x10(%esp),%esi
 8049050:	eb 14                	jmp    8049066 <blank_line+0x1f>
 8049052:	e8 59 f8 ff ff       	call   80488b0 <__ctype_b_loc@plt>
 8049057:	83 c6 01             	add    $0x1,%esi
 804905a:	0f be db             	movsbl %bl,%ebx
 804905d:	8b 00                	mov    (%eax),%eax
 804905f:	f6 44 58 01 20       	testb  $0x20,0x1(%eax,%ebx,2)
 8049064:	74 0e                	je     8049074 <blank_line+0x2d>
 8049066:	0f b6 1e             	movzbl (%esi),%ebx
 8049069:	84 db                	test   %bl,%bl
 804906b:	75 e5                	jne    8049052 <blank_line+0xb>
 804906d:	b8 01 00 00 00       	mov    $0x1,%eax
 8049072:	eb 05                	jmp    8049079 <blank_line+0x32>
 8049074:	b8 00 00 00 00       	mov    $0x0,%eax
 8049079:	83 c4 04             	add    $0x4,%esp
 804907c:	5b                   	pop    %ebx
 804907d:	5e                   	pop    %esi
 804907e:	c3                   	ret    

0804907f <skip>:
 804907f:	53                   	push   %ebx
 8049080:	83 ec 08             	sub    $0x8,%esp
 8049083:	83 ec 04             	sub    $0x4,%esp
 8049086:	ff 35 d0 c3 04 08    	pushl  0x804c3d0
 804908c:	6a 50                	push   $0x50
 804908e:	a1 cc c3 04 08       	mov    0x804c3cc,%eax
 8049093:	8d 04 80             	lea    (%eax,%eax,4),%eax
 8049096:	c1 e0 04             	shl    $0x4,%eax
 8049099:	05 e0 c3 04 08       	add    $0x804c3e0,%eax
 804909e:	50                   	push   %eax
 804909f:	e8 ac f6 ff ff       	call   8048750 <fgets@plt>
 80490a4:	89 c3                	mov    %eax,%ebx
 80490a6:	83 c4 10             	add    $0x10,%esp
 80490a9:	85 c0                	test   %eax,%eax
 80490ab:	74 10                	je     80490bd <skip+0x3e>
 80490ad:	83 ec 0c             	sub    $0xc,%esp
 80490b0:	50                   	push   %eax
 80490b1:	e8 91 ff ff ff       	call   8049047 <blank_line>
 80490b6:	83 c4 10             	add    $0x10,%esp
 80490b9:	85 c0                	test   %eax,%eax
 80490bb:	75 c6                	jne    8049083 <skip+0x4>
 80490bd:	89 d8                	mov    %ebx,%eax
 80490bf:	83 c4 08             	add    $0x8,%esp
 80490c2:	5b                   	pop    %ebx
 80490c3:	c3                   	ret    

080490c4 <explode_bomb>:
 80490c4:	83 ec 18             	sub    $0x18,%esp
 80490c7:	68 83 a1 04 08       	push   $0x804a183
 80490cc:	e8 ef f6 ff ff       	call   80487c0 <puts@plt>
 80490d1:	c7 04 24 8c a1 04 08 	movl   $0x804a18c,(%esp)
 80490d8:	e8 e3 f6 ff ff       	call   80487c0 <puts@plt>
 80490dd:	c7 04 24 08 00 00 00 	movl   $0x8,(%esp)
 80490e4:	e8 f7 f6 ff ff       	call   80487e0 <exit@plt>

080490e9 <read_six_numbers>:
 80490e9:	83 ec 0c             	sub    $0xc,%esp
 80490ec:	8b 44 24 14          	mov    0x14(%esp),%eax
 80490f0:	8d 50 14             	lea    0x14(%eax),%edx
 80490f3:	52                   	push   %edx
 80490f4:	8d 50 10             	lea    0x10(%eax),%edx
 80490f7:	52                   	push   %edx
 80490f8:	8d 50 0c             	lea    0xc(%eax),%edx
 80490fb:	52                   	push   %edx
 80490fc:	8d 50 08             	lea    0x8(%eax),%edx
 80490ff:	52                   	push   %edx
 8049100:	8d 50 04             	lea    0x4(%eax),%edx
 8049103:	52                   	push   %edx
 8049104:	50                   	push   %eax
 8049105:	68 a3 a1 04 08       	push   $0x804a1a3
 804910a:	ff 74 24 2c          	pushl  0x2c(%esp)
 804910e:	e8 fd f6 ff ff       	call   8048810 <__isoc99_sscanf@plt>
 8049113:	83 c4 20             	add    $0x20,%esp
 8049116:	83 f8 05             	cmp    $0x5,%eax
 8049119:	7f 05                	jg     8049120 <read_six_numbers+0x37>
 804911b:	e8 a4 ff ff ff       	call   80490c4 <explode_bomb>
 8049120:	83 c4 0c             	add    $0xc,%esp
 8049123:	c3                   	ret    

08049124 <read_line>:
 8049124:	57                   	push   %edi
 8049125:	56                   	push   %esi
 8049126:	53                   	push   %ebx
 8049127:	e8 53 ff ff ff       	call   804907f <skip>
 804912c:	85 c0                	test   %eax,%eax
 804912e:	75 70                	jne    80491a0 <read_line+0x7c>
 8049130:	a1 c0 c3 04 08       	mov    0x804c3c0,%eax
 8049135:	39 05 d0 c3 04 08    	cmp    %eax,0x804c3d0
 804913b:	75 19                	jne    8049156 <read_line+0x32>
 804913d:	83 ec 0c             	sub    $0xc,%esp
 8049140:	68 b5 a1 04 08       	push   $0x804a1b5
 8049145:	e8 76 f6 ff ff       	call   80487c0 <puts@plt>
 804914a:	c7 04 24 08 00 00 00 	movl   $0x8,(%esp)
 8049151:	e8 8a f6 ff ff       	call   80487e0 <exit@plt>
 8049156:	83 ec 0c             	sub    $0xc,%esp
 8049159:	68 d3 a1 04 08       	push   $0x804a1d3
 804915e:	e8 4d f6 ff ff       	call   80487b0 <getenv@plt>
 8049163:	83 c4 10             	add    $0x10,%esp
 8049166:	85 c0                	test   %eax,%eax
 8049168:	74 0a                	je     8049174 <read_line+0x50>
 804916a:	83 ec 0c             	sub    $0xc,%esp
 804916d:	6a 00                	push   $0x0
 804916f:	e8 6c f6 ff ff       	call   80487e0 <exit@plt>
 8049174:	a1 c0 c3 04 08       	mov    0x804c3c0,%eax
 8049179:	a3 d0 c3 04 08       	mov    %eax,0x804c3d0
 804917e:	e8 fc fe ff ff       	call   804907f <skip>
 8049183:	85 c0                	test   %eax,%eax
 8049185:	75 19                	jne    80491a0 <read_line+0x7c>
 8049187:	83 ec 0c             	sub    $0xc,%esp
 804918a:	68 b5 a1 04 08       	push   $0x804a1b5
 804918f:	e8 2c f6 ff ff       	call   80487c0 <puts@plt>
 8049194:	c7 04 24 00 00 00 00 	movl   $0x0,(%esp)
 804919b:	e8 40 f6 ff ff       	call   80487e0 <exit@plt>
 80491a0:	8b 15 cc c3 04 08    	mov    0x804c3cc,%edx
 80491a6:	8d 1c 92             	lea    (%edx,%edx,4),%ebx
 80491a9:	c1 e3 04             	shl    $0x4,%ebx
 80491ac:	81 c3 e0 c3 04 08    	add    $0x804c3e0,%ebx
 80491b2:	b8 00 00 00 00       	mov    $0x0,%eax
 80491b7:	b9 ff ff ff ff       	mov    $0xffffffff,%ecx
 80491bc:	89 df                	mov    %ebx,%edi
 80491be:	f2 ae                	repnz scas %es:(%edi),%al
 80491c0:	f7 d1                	not    %ecx
 80491c2:	83 e9 01             	sub    $0x1,%ecx
 80491c5:	83 f9 4e             	cmp    $0x4e,%ecx
 80491c8:	7e 36                	jle    8049200 <read_line+0xdc>
 80491ca:	83 ec 0c             	sub    $0xc,%esp
 80491cd:	68 de a1 04 08       	push   $0x804a1de
 80491d2:	e8 e9 f5 ff ff       	call   80487c0 <puts@plt>
 80491d7:	a1 cc c3 04 08       	mov    0x804c3cc,%eax
 80491dc:	8d 50 01             	lea    0x1(%eax),%edx
 80491df:	89 15 cc c3 04 08    	mov    %edx,0x804c3cc
 80491e5:	6b c0 50             	imul   $0x50,%eax,%eax
 80491e8:	05 e0 c3 04 08       	add    $0x804c3e0,%eax
 80491ed:	be f9 a1 04 08       	mov    $0x804a1f9,%esi
 80491f2:	b9 04 00 00 00       	mov    $0x4,%ecx
 80491f7:	89 c7                	mov    %eax,%edi
 80491f9:	f3 a5                	rep movsl %ds:(%esi),%es:(%edi)
 80491fb:	e8 c4 fe ff ff       	call   80490c4 <explode_bomb>
 8049200:	8d 04 92             	lea    (%edx,%edx,4),%eax
 8049203:	c1 e0 04             	shl    $0x4,%eax
 8049206:	c6 84 01 df c3 04 08 	movb   $0x0,0x804c3df(%ecx,%eax,1)
 804920d:	00 
 804920e:	83 c2 01             	add    $0x1,%edx
 8049211:	89 15 cc c3 04 08    	mov    %edx,0x804c3cc
 8049217:	89 d8                	mov    %ebx,%eax
 8049219:	5b                   	pop    %ebx
 804921a:	5e                   	pop    %esi
 804921b:	5f                   	pop    %edi
 804921c:	c3                   	ret    

0804921d <phase_defused>:
 804921d:	83 ec 6c             	sub    $0x6c,%esp
 8049220:	65 a1 14 00 00 00    	mov    %gs:0x14,%eax
 8049226:	89 44 24 5c          	mov    %eax,0x5c(%esp)
 804922a:	31 c0                	xor    %eax,%eax
 804922c:	83 3d cc c3 04 08 06 	cmpl   $0x6,0x804c3cc
 8049233:	75 73                	jne    80492a8 <phase_defused+0x8b>
 8049235:	83 ec 0c             	sub    $0xc,%esp
 8049238:	8d 44 24 18          	lea    0x18(%esp),%eax
 804923c:	50                   	push   %eax
 804923d:	8d 44 24 18          	lea    0x18(%esp),%eax
 8049241:	50                   	push   %eax
 8049242:	8d 44 24 18          	lea    0x18(%esp),%eax
 8049246:	50                   	push   %eax
 8049247:	68 09 a2 04 08       	push   $0x804a209
 804924c:	68 d0 c4 04 08       	push   $0x804c4d0
 8049251:	e8 ba f5 ff ff       	call   8048810 <__isoc99_sscanf@plt>
 8049256:	83 c4 20             	add    $0x20,%esp
 8049259:	83 f8 03             	cmp    $0x3,%eax
 804925c:	75 3a                	jne    8049298 <phase_defused+0x7b>
 804925e:	83 ec 08             	sub    $0x8,%esp
 8049261:	68 12 a2 04 08       	push   $0x804a212
 8049266:	8d 44 24 18          	lea    0x18(%esp),%eax
 804926a:	50                   	push   %eax
 804926b:	e8 5d fd ff ff       	call   8048fcd <strings_not_equal>
 8049270:	83 c4 10             	add    $0x10,%esp
 8049273:	85 c0                	test   %eax,%eax
 8049275:	75 21                	jne    8049298 <phase_defused+0x7b>
 8049277:	83 ec 0c             	sub    $0xc,%esp
 804927a:	68 d8 a0 04 08       	push   $0x804a0d8
 804927f:	e8 3c f5 ff ff       	call   80487c0 <puts@plt>
 8049284:	c7 04 24 00 a1 04 08 	movl   $0x804a100,(%esp)
 804928b:	e8 30 f5 ff ff       	call   80487c0 <puts@plt>
 8049290:	e8 44 fc ff ff       	call   8048ed9 <secret_phase>
 8049295:	83 c4 10             	add    $0x10,%esp
 8049298:	83 ec 0c             	sub    $0xc,%esp
 804929b:	68 38 a1 04 08       	push   $0x804a138
 80492a0:	e8 1b f5 ff ff       	call   80487c0 <puts@plt>
 80492a5:	83 c4 10             	add    $0x10,%esp
 80492a8:	8b 44 24 5c          	mov    0x5c(%esp),%eax
 80492ac:	65 33 05 14 00 00 00 	xor    %gs:0x14,%eax
 80492b3:	74 05                	je     80492ba <phase_defused+0x9d>
 80492b5:	e8 d6 f4 ff ff       	call   8048790 <__stack_chk_fail@plt>
 80492ba:	83 c4 6c             	add    $0x6c,%esp
 80492bd:	c3                   	ret    

080492be <sigalrm_handler>:
 80492be:	83 ec 0c             	sub    $0xc,%esp
 80492c1:	6a 00                	push   $0x0
 80492c3:	68 68 a2 04 08       	push   $0x804a268
 80492c8:	6a 01                	push   $0x1
 80492ca:	ff 35 a0 c3 04 08    	pushl  0x804c3a0
 80492d0:	e8 8b f5 ff ff       	call   8048860 <__fprintf_chk@plt>
 80492d5:	c7 04 24 01 00 00 00 	movl   $0x1,(%esp)
 80492dc:	e8 ff f4 ff ff       	call   80487e0 <exit@plt>

080492e1 <rio_readlineb>:
 80492e1:	55                   	push   %ebp
 80492e2:	57                   	push   %edi
 80492e3:	56                   	push   %esi
 80492e4:	53                   	push   %ebx
 80492e5:	83 ec 2c             	sub    $0x2c,%esp
 80492e8:	89 d7                	mov    %edx,%edi
 80492ea:	89 4c 24 0c          	mov    %ecx,0xc(%esp)
 80492ee:	65 8b 15 14 00 00 00 	mov    %gs:0x14,%edx
 80492f5:	89 54 24 1c          	mov    %edx,0x1c(%esp)
 80492f9:	31 d2                	xor    %edx,%edx
 80492fb:	83 f9 01             	cmp    $0x1,%ecx
 80492fe:	76 79                	jbe    8049379 <rio_readlineb+0x98>
 8049300:	89 c3                	mov    %eax,%ebx
 8049302:	89 4c 24 08          	mov    %ecx,0x8(%esp)
 8049306:	bd 01 00 00 00       	mov    $0x1,%ebp
 804930b:	8d 73 0c             	lea    0xc(%ebx),%esi
 804930e:	eb 2d                	jmp    804933d <rio_readlineb+0x5c>
 8049310:	83 ec 04             	sub    $0x4,%esp
 8049313:	68 00 20 00 00       	push   $0x2000
 8049318:	56                   	push   %esi
 8049319:	ff 33                	pushl  (%ebx)
 804931b:	e8 10 f4 ff ff       	call   8048730 <read@plt>
 8049320:	89 43 04             	mov    %eax,0x4(%ebx)
 8049323:	83 c4 10             	add    $0x10,%esp
 8049326:	85 c0                	test   %eax,%eax
 8049328:	79 0c                	jns    8049336 <rio_readlineb+0x55>
 804932a:	e8 01 f5 ff ff       	call   8048830 <__errno_location@plt>
 804932f:	83 38 04             	cmpl   $0x4,(%eax)
 8049332:	74 09                	je     804933d <rio_readlineb+0x5c>
 8049334:	eb 62                	jmp    8049398 <rio_readlineb+0xb7>
 8049336:	85 c0                	test   %eax,%eax
 8049338:	74 63                	je     804939d <rio_readlineb+0xbc>
 804933a:	89 73 08             	mov    %esi,0x8(%ebx)
 804933d:	8b 43 04             	mov    0x4(%ebx),%eax
 8049340:	85 c0                	test   %eax,%eax
 8049342:	7e cc                	jle    8049310 <rio_readlineb+0x2f>
 8049344:	8b 4b 08             	mov    0x8(%ebx),%ecx
 8049347:	0f b6 11             	movzbl (%ecx),%edx
 804934a:	88 54 24 1b          	mov    %dl,0x1b(%esp)
 804934e:	83 c1 01             	add    $0x1,%ecx
 8049351:	89 4b 08             	mov    %ecx,0x8(%ebx)
 8049354:	83 e8 01             	sub    $0x1,%eax
 8049357:	89 43 04             	mov    %eax,0x4(%ebx)
 804935a:	83 c7 01             	add    $0x1,%edi
 804935d:	88 57 ff             	mov    %dl,-0x1(%edi)
 8049360:	80 fa 0a             	cmp    $0xa,%dl
 8049363:	75 09                	jne    804936e <rio_readlineb+0x8d>
 8049365:	eb 1d                	jmp    8049384 <rio_readlineb+0xa3>
 8049367:	83 fd 01             	cmp    $0x1,%ebp
 804936a:	75 18                	jne    8049384 <rio_readlineb+0xa3>
 804936c:	eb 1b                	jmp    8049389 <rio_readlineb+0xa8>
 804936e:	83 c5 01             	add    $0x1,%ebp
 8049371:	3b 6c 24 08          	cmp    0x8(%esp),%ebp
 8049375:	74 09                	je     8049380 <rio_readlineb+0x9f>
 8049377:	eb c4                	jmp    804933d <rio_readlineb+0x5c>
 8049379:	bd 01 00 00 00       	mov    $0x1,%ebp
 804937e:	eb 04                	jmp    8049384 <rio_readlineb+0xa3>
 8049380:	8b 6c 24 0c          	mov    0xc(%esp),%ebp
 8049384:	c6 07 00             	movb   $0x0,(%edi)
 8049387:	89 e8                	mov    %ebp,%eax
 8049389:	8b 54 24 1c          	mov    0x1c(%esp),%edx
 804938d:	65 33 15 14 00 00 00 	xor    %gs:0x14,%edx
 8049394:	74 17                	je     80493ad <rio_readlineb+0xcc>
 8049396:	eb 10                	jmp    80493a8 <rio_readlineb+0xc7>
 8049398:	b8 ff ff ff ff       	mov    $0xffffffff,%eax
 804939d:	85 c0                	test   %eax,%eax
 804939f:	74 c6                	je     8049367 <rio_readlineb+0x86>
 80493a1:	b8 ff ff ff ff       	mov    $0xffffffff,%eax
 80493a6:	eb e1                	jmp    8049389 <rio_readlineb+0xa8>
 80493a8:	e8 e3 f3 ff ff       	call   8048790 <__stack_chk_fail@plt>
 80493ad:	83 c4 2c             	add    $0x2c,%esp
 80493b0:	5b                   	pop    %ebx
 80493b1:	5e                   	pop    %esi
 80493b2:	5f                   	pop    %edi
 80493b3:	5d                   	pop    %ebp
 80493b4:	c3                   	ret    

080493b5 <submitr>:
 80493b5:	55                   	push   %ebp
 80493b6:	57                   	push   %edi
 80493b7:	56                   	push   %esi
 80493b8:	53                   	push   %ebx
 80493b9:	81 ec 60 a0 00 00    	sub    $0xa060,%esp
 80493bf:	8b b4 24 74 a0 00 00 	mov    0xa074(%esp),%esi
 80493c6:	8b 84 24 7c a0 00 00 	mov    0xa07c(%esp),%eax
 80493cd:	89 44 24 10          	mov    %eax,0x10(%esp)
 80493d1:	8b 84 24 80 a0 00 00 	mov    0xa080(%esp),%eax
 80493d8:	89 44 24 14          	mov    %eax,0x14(%esp)
 80493dc:	8b 84 24 84 a0 00 00 	mov    0xa084(%esp),%eax
 80493e3:	89 44 24 18          	mov    %eax,0x18(%esp)
 80493e7:	8b 9c 24 88 a0 00 00 	mov    0xa088(%esp),%ebx
 80493ee:	8b 84 24 8c a0 00 00 	mov    0xa08c(%esp),%eax
 80493f5:	89 44 24 1c          	mov    %eax,0x1c(%esp)
 80493f9:	65 a1 14 00 00 00    	mov    %gs:0x14,%eax
 80493ff:	89 84 24 50 a0 00 00 	mov    %eax,0xa050(%esp)
 8049406:	31 c0                	xor    %eax,%eax
 8049408:	c7 44 24 30 00 00 00 	movl   $0x0,0x30(%esp)
 804940f:	00 
 8049410:	6a 00                	push   $0x0
 8049412:	6a 01                	push   $0x1
 8049414:	6a 02                	push   $0x2
 8049416:	e8 35 f4 ff ff       	call   8048850 <socket@plt>
 804941b:	89 44 24 18          	mov    %eax,0x18(%esp)
 804941f:	83 c4 10             	add    $0x10,%esp
 8049422:	85 c0                	test   %eax,%eax
 8049424:	79 52                	jns    8049478 <submitr+0xc3>
 8049426:	8b 44 24 18          	mov    0x18(%esp),%eax
 804942a:	c7 00 45 72 72 6f    	movl   $0x6f727245,(%eax)
 8049430:	c7 40 04 72 3a 20 43 	movl   $0x43203a72,0x4(%eax)
 8049437:	c7 40 08 6c 69 65 6e 	movl   $0x6e65696c,0x8(%eax)
 804943e:	c7 40 0c 74 20 75 6e 	movl   $0x6e752074,0xc(%eax)
 8049445:	c7 40 10 61 62 6c 65 	movl   $0x656c6261,0x10(%eax)
 804944c:	c7 40 14 20 74 6f 20 	movl   $0x206f7420,0x14(%eax)
 8049453:	c7 40 18 63 72 65 61 	movl   $0x61657263,0x18(%eax)
 804945a:	c7 40 1c 74 65 20 73 	movl   $0x73206574,0x1c(%eax)
 8049461:	c7 40 20 6f 63 6b 65 	movl   $0x656b636f,0x20(%eax)
 8049468:	66 c7 40 24 74 00    	movw   $0x74,0x24(%eax)
 804946e:	b8 ff ff ff ff       	mov    $0xffffffff,%eax
 8049473:	e9 3f 06 00 00       	jmp    8049ab7 <submitr+0x702>
 8049478:	83 ec 0c             	sub    $0xc,%esp
 804947b:	56                   	push   %esi
 804947c:	e8 ef f3 ff ff       	call   8048870 <gethostbyname@plt>
 8049481:	83 c4 10             	add    $0x10,%esp
 8049484:	85 c0                	test   %eax,%eax
 8049486:	75 73                	jne    80494fb <submitr+0x146>
 8049488:	8b 44 24 18          	mov    0x18(%esp),%eax
 804948c:	c7 00 45 72 72 6f    	movl   $0x6f727245,(%eax)
 8049492:	c7 40 04 72 3a 20 44 	movl   $0x44203a72,0x4(%eax)
 8049499:	c7 40 08 4e 53 20 69 	movl   $0x6920534e,0x8(%eax)
 80494a0:	c7 40 0c 73 20 75 6e 	movl   $0x6e752073,0xc(%eax)
 80494a7:	c7 40 10 61 62 6c 65 	movl   $0x656c6261,0x10(%eax)
 80494ae:	c7 40 14 20 74 6f 20 	movl   $0x206f7420,0x14(%eax)
 80494b5:	c7 40 18 72 65 73 6f 	movl   $0x6f736572,0x18(%eax)
 80494bc:	c7 40 1c 6c 76 65 20 	movl   $0x2065766c,0x1c(%eax)
 80494c3:	c7 40 20 73 65 72 76 	movl   $0x76726573,0x20(%eax)
 80494ca:	c7 40 24 65 72 20 61 	movl   $0x61207265,0x24(%eax)
 80494d1:	c7 40 28 64 64 72 65 	movl   $0x65726464,0x28(%eax)
 80494d8:	66 c7 40 2c 73 73    	movw   $0x7373,0x2c(%eax)
 80494de:	c6 40 2e 00          	movb   $0x0,0x2e(%eax)
 80494e2:	83 ec 0c             	sub    $0xc,%esp
 80494e5:	ff 74 24 14          	pushl  0x14(%esp)
 80494e9:	e8 b2 f3 ff ff       	call   80488a0 <close@plt>
 80494ee:	83 c4 10             	add    $0x10,%esp
 80494f1:	b8 ff ff ff ff       	mov    $0xffffffff,%eax
 80494f6:	e9 bc 05 00 00       	jmp    8049ab7 <submitr+0x702>
 80494fb:	8d 74 24 30          	lea    0x30(%esp),%esi
 80494ff:	c7 44 24 30 00 00 00 	movl   $0x0,0x30(%esp)
 8049506:	00 
 8049507:	c7 44 24 34 00 00 00 	movl   $0x0,0x34(%esp)
 804950e:	00 
 804950f:	c7 44 24 38 00 00 00 	movl   $0x0,0x38(%esp)
 8049516:	00 
 8049517:	c7 44 24 3c 00 00 00 	movl   $0x0,0x3c(%esp)
 804951e:	00 
 804951f:	66 c7 44 24 30 02 00 	movw   $0x2,0x30(%esp)
 8049526:	6a 0c                	push   $0xc
 8049528:	ff 70 0c             	pushl  0xc(%eax)
 804952b:	8b 40 10             	mov    0x10(%eax),%eax
 804952e:	ff 30                	pushl  (%eax)
 8049530:	8d 44 24 40          	lea    0x40(%esp),%eax
 8049534:	50                   	push   %eax
 8049535:	e8 96 f2 ff ff       	call   80487d0 <__memmove_chk@plt>
 804953a:	0f b7 84 24 84 a0 00 	movzwl 0xa084(%esp),%eax
 8049541:	00 
 8049542:	66 c1 c8 08          	ror    $0x8,%ax
 8049546:	66 89 44 24 42       	mov    %ax,0x42(%esp)
 804954b:	83 c4 0c             	add    $0xc,%esp
 804954e:	6a 10                	push   $0x10
 8049550:	56                   	push   %esi
 8049551:	ff 74 24 14          	pushl  0x14(%esp)
 8049555:	e8 36 f3 ff ff       	call   8048890 <connect@plt>
 804955a:	83 c4 10             	add    $0x10,%esp
 804955d:	85 c0                	test   %eax,%eax
 804955f:	79 65                	jns    80495c6 <submitr+0x211>
 8049561:	8b 44 24 18          	mov    0x18(%esp),%eax
 8049565:	c7 00 45 72 72 6f    	movl   $0x6f727245,(%eax)
 804956b:	c7 40 04 72 3a 20 55 	movl   $0x55203a72,0x4(%eax)
 8049572:	c7 40 08 6e 61 62 6c 	movl   $0x6c62616e,0x8(%eax)
 8049579:	c7 40 0c 65 20 74 6f 	movl   $0x6f742065,0xc(%eax)
 8049580:	c7 40 10 20 63 6f 6e 	movl   $0x6e6f6320,0x10(%eax)
 8049587:	c7 40 14 6e 65 63 74 	movl   $0x7463656e,0x14(%eax)
 804958e:	c7 40 18 20 74 6f 20 	movl   $0x206f7420,0x18(%eax)
 8049595:	c7 40 1c 74 68 65 20 	movl   $0x20656874,0x1c(%eax)
 804959c:	c7 40 20 73 65 72 76 	movl   $0x76726573,0x20(%eax)
 80495a3:	66 c7 40 24 65 72    	movw   $0x7265,0x24(%eax)
 80495a9:	c6 40 26 00          	movb   $0x0,0x26(%eax)
 80495ad:	83 ec 0c             	sub    $0xc,%esp
 80495b0:	ff 74 24 14          	pushl  0x14(%esp)
 80495b4:	e8 e7 f2 ff ff       	call   80488a0 <close@plt>
 80495b9:	83 c4 10             	add    $0x10,%esp
 80495bc:	b8 ff ff ff ff       	mov    $0xffffffff,%eax
 80495c1:	e9 f1 04 00 00       	jmp    8049ab7 <submitr+0x702>
 80495c6:	be ff ff ff ff       	mov    $0xffffffff,%esi
 80495cb:	b8 00 00 00 00       	mov    $0x0,%eax
 80495d0:	89 f1                	mov    %esi,%ecx
 80495d2:	89 df                	mov    %ebx,%edi
 80495d4:	f2 ae                	repnz scas %es:(%edi),%al
 80495d6:	f7 d1                	not    %ecx
 80495d8:	89 cd                	mov    %ecx,%ebp
 80495da:	89 f1                	mov    %esi,%ecx
 80495dc:	8b 7c 24 0c          	mov    0xc(%esp),%edi
 80495e0:	f2 ae                	repnz scas %es:(%edi),%al
 80495e2:	89 4c 24 1c          	mov    %ecx,0x1c(%esp)
 80495e6:	89 f1                	mov    %esi,%ecx
 80495e8:	8b 7c 24 10          	mov    0x10(%esp),%edi
 80495ec:	f2 ae                	repnz scas %es:(%edi),%al
 80495ee:	89 ca                	mov    %ecx,%edx
 80495f0:	f7 d2                	not    %edx
 80495f2:	89 f1                	mov    %esi,%ecx
 80495f4:	8b 7c 24 14          	mov    0x14(%esp),%edi
 80495f8:	f2 ae                	repnz scas %es:(%edi),%al
 80495fa:	2b 54 24 1c          	sub    0x1c(%esp),%edx
 80495fe:	29 ca                	sub    %ecx,%edx
 8049600:	8d 44 6d fd          	lea    -0x3(%ebp,%ebp,2),%eax
 8049604:	8d 44 02 7b          	lea    0x7b(%edx,%eax,1),%eax
 8049608:	3d 00 20 00 00       	cmp    $0x2000,%eax
 804960d:	76 7e                	jbe    804968d <submitr+0x2d8>
 804960f:	8b 44 24 18          	mov    0x18(%esp),%eax
 8049613:	c7 00 45 72 72 6f    	movl   $0x6f727245,(%eax)
 8049619:	c7 40 04 72 3a 20 52 	movl   $0x52203a72,0x4(%eax)
 8049620:	c7 40 08 65 73 75 6c 	movl   $0x6c757365,0x8(%eax)
 8049627:	c7 40 0c 74 20 73 74 	movl   $0x74732074,0xc(%eax)
 804962e:	c7 40 10 72 69 6e 67 	movl   $0x676e6972,0x10(%eax)
 8049635:	c7 40 14 20 74 6f 6f 	movl   $0x6f6f7420,0x14(%eax)
 804963c:	c7 40 18 20 6c 61 72 	movl   $0x72616c20,0x18(%eax)
 8049643:	c7 40 1c 67 65 2e 20 	movl   $0x202e6567,0x1c(%eax)
 804964a:	c7 40 20 49 6e 63 72 	movl   $0x72636e49,0x20(%eax)
 8049651:	c7 40 24 65 61 73 65 	movl   $0x65736165,0x24(%eax)
 8049658:	c7 40 28 20 53 55 42 	movl   $0x42555320,0x28(%eax)
 804965f:	c7 40 2c 4d 49 54 52 	movl   $0x5254494d,0x2c(%eax)
 8049666:	c7 40 30 5f 4d 41 58 	movl   $0x58414d5f,0x30(%eax)
 804966d:	c7 40 34 42 55 46 00 	movl   $0x465542,0x34(%eax)
 8049674:	83 ec 0c             	sub    $0xc,%esp
 8049677:	ff 74 24 14          	pushl  0x14(%esp)
 804967b:	e8 20 f2 ff ff       	call   80488a0 <close@plt>
 8049680:	83 c4 10             	add    $0x10,%esp
 8049683:	b8 ff ff ff ff       	mov    $0xffffffff,%eax
 8049688:	e9 2a 04 00 00       	jmp    8049ab7 <submitr+0x702>
 804968d:	8d 94 24 4c 40 00 00 	lea    0x404c(%esp),%edx
 8049694:	b9 00 08 00 00       	mov    $0x800,%ecx
 8049699:	b8 00 00 00 00       	mov    $0x0,%eax
 804969e:	89 d7                	mov    %edx,%edi
 80496a0:	f3 ab                	rep stos %eax,%es:(%edi)
 80496a2:	b9 ff ff ff ff       	mov    $0xffffffff,%ecx
 80496a7:	89 df                	mov    %ebx,%edi
 80496a9:	f2 ae                	repnz scas %es:(%edi),%al
 80496ab:	f7 d1                	not    %ecx
 80496ad:	89 ce                	mov    %ecx,%esi
 80496af:	83 ee 01             	sub    $0x1,%esi
 80496b2:	0f 84 5c 04 00 00    	je     8049b14 <submitr+0x75f>
 80496b8:	89 d5                	mov    %edx,%ebp
 80496ba:	bf d9 ff 00 00       	mov    $0xffd9,%edi
 80496bf:	0f b6 13             	movzbl (%ebx),%edx
 80496c2:	8d 4a d6             	lea    -0x2a(%edx),%ecx
 80496c5:	b8 01 00 00 00       	mov    $0x1,%eax
 80496ca:	80 f9 0f             	cmp    $0xf,%cl
 80496cd:	77 0a                	ja     80496d9 <submitr+0x324>
 80496cf:	89 f8                	mov    %edi,%eax
 80496d1:	d3 e8                	shr    %cl,%eax
 80496d3:	83 f0 01             	xor    $0x1,%eax
 80496d6:	83 e0 01             	and    $0x1,%eax
 80496d9:	80 fa 5f             	cmp    $0x5f,%dl
 80496dc:	0f 94 c1             	sete   %cl
 80496df:	38 c1                	cmp    %al,%cl
 80496e1:	73 0c                	jae    80496ef <submitr+0x33a>
 80496e3:	89 d0                	mov    %edx,%eax
 80496e5:	83 e0 df             	and    $0xffffffdf,%eax
 80496e8:	83 e8 41             	sub    $0x41,%eax
 80496eb:	3c 19                	cmp    $0x19,%al
 80496ed:	77 08                	ja     80496f7 <submitr+0x342>
 80496ef:	88 55 00             	mov    %dl,0x0(%ebp)
 80496f2:	8d 6d 01             	lea    0x1(%ebp),%ebp
 80496f5:	eb 62                	jmp    8049759 <submitr+0x3a4>
 80496f7:	80 fa 20             	cmp    $0x20,%dl
 80496fa:	75 09                	jne    8049705 <submitr+0x350>
 80496fc:	c6 45 00 2b          	movb   $0x2b,0x0(%ebp)
 8049700:	8d 6d 01             	lea    0x1(%ebp),%ebp
 8049703:	eb 54                	jmp    8049759 <submitr+0x3a4>
 8049705:	8d 42 e0             	lea    -0x20(%edx),%eax
 8049708:	3c 5f                	cmp    $0x5f,%al
 804970a:	76 09                	jbe    8049715 <submitr+0x360>
 804970c:	80 fa 09             	cmp    $0x9,%dl
 804970f:	0f 85 bb 03 00 00    	jne    8049ad0 <submitr+0x71b>
 8049715:	83 ec 0c             	sub    $0xc,%esp
 8049718:	0f b6 d2             	movzbl %dl,%edx
 804971b:	52                   	push   %edx
 804971c:	68 74 a3 04 08       	push   $0x804a374
 8049721:	6a 08                	push   $0x8
 8049723:	6a 01                	push   $0x1
 8049725:	8d 84 24 68 80 00 00 	lea    0x8068(%esp),%eax
 804972c:	50                   	push   %eax
 804972d:	e8 8e f1 ff ff       	call   80488c0 <__sprintf_chk@plt>
 8049732:	0f b6 84 24 6c 80 00 	movzbl 0x806c(%esp),%eax
 8049739:	00 
 804973a:	88 45 00             	mov    %al,0x0(%ebp)
 804973d:	0f b6 84 24 6d 80 00 	movzbl 0x806d(%esp),%eax
 8049744:	00 
 8049745:	88 45 01             	mov    %al,0x1(%ebp)
 8049748:	0f b6 84 24 6e 80 00 	movzbl 0x806e(%esp),%eax
 804974f:	00 
 8049750:	88 45 02             	mov    %al,0x2(%ebp)
 8049753:	83 c4 20             	add    $0x20,%esp
 8049756:	8d 6d 03             	lea    0x3(%ebp),%ebp
 8049759:	83 c3 01             	add    $0x1,%ebx
 804975c:	83 ee 01             	sub    $0x1,%esi
 804975f:	0f 85 5a ff ff ff    	jne    80496bf <submitr+0x30a>
 8049765:	e9 aa 03 00 00       	jmp    8049b14 <submitr+0x75f>
 804976a:	83 ec 04             	sub    $0x4,%esp
 804976d:	53                   	push   %ebx
 804976e:	56                   	push   %esi
 804976f:	55                   	push   %ebp
 8049770:	e8 8b f0 ff ff       	call   8048800 <write@plt>
 8049775:	83 c4 10             	add    $0x10,%esp
 8049778:	85 c0                	test   %eax,%eax
 804977a:	7f 0f                	jg     804978b <submitr+0x3d6>
 804977c:	e8 af f0 ff ff       	call   8048830 <__errno_location@plt>
 8049781:	83 38 04             	cmpl   $0x4,(%eax)
 8049784:	75 0f                	jne    8049795 <submitr+0x3e0>
 8049786:	b8 00 00 00 00       	mov    $0x0,%eax
 804978b:	01 c6                	add    %eax,%esi
 804978d:	29 c3                	sub    %eax,%ebx
 804978f:	75 d9                	jne    804976a <submitr+0x3b5>
 8049791:	85 ff                	test   %edi,%edi
 8049793:	79 69                	jns    80497fe <submitr+0x449>
 8049795:	8b 44 24 18          	mov    0x18(%esp),%eax
 8049799:	c7 00 45 72 72 6f    	movl   $0x6f727245,(%eax)
 804979f:	c7 40 04 72 3a 20 43 	movl   $0x43203a72,0x4(%eax)
 80497a6:	c7 40 08 6c 69 65 6e 	movl   $0x6e65696c,0x8(%eax)
 80497ad:	c7 40 0c 74 20 75 6e 	movl   $0x6e752074,0xc(%eax)
 80497b4:	c7 40 10 61 62 6c 65 	movl   $0x656c6261,0x10(%eax)
 80497bb:	c7 40 14 20 74 6f 20 	movl   $0x206f7420,0x14(%eax)
 80497c2:	c7 40 18 77 72 69 74 	movl   $0x74697277,0x18(%eax)
 80497c9:	c7 40 1c 65 20 74 6f 	movl   $0x6f742065,0x1c(%eax)
 80497d0:	c7 40 20 20 74 68 65 	movl   $0x65687420,0x20(%eax)
 80497d7:	c7 40 24 20 73 65 72 	movl   $0x72657320,0x24(%eax)
 80497de:	c7 40 28 76 65 72 00 	movl   $0x726576,0x28(%eax)
 80497e5:	83 ec 0c             	sub    $0xc,%esp
 80497e8:	ff 74 24 14          	pushl  0x14(%esp)
 80497ec:	e8 af f0 ff ff       	call   80488a0 <close@plt>
 80497f1:	83 c4 10             	add    $0x10,%esp
 80497f4:	b8 ff ff ff ff       	mov    $0xffffffff,%eax
 80497f9:	e9 b9 02 00 00       	jmp    8049ab7 <submitr+0x702>
 80497fe:	8b 44 24 08          	mov    0x8(%esp),%eax
 8049802:	89 44 24 40          	mov    %eax,0x40(%esp)
 8049806:	c7 44 24 44 00 00 00 	movl   $0x0,0x44(%esp)
 804980d:	00 
 804980e:	8d 44 24 4c          	lea    0x4c(%esp),%eax
 8049812:	89 44 24 48          	mov    %eax,0x48(%esp)
 8049816:	b9 00 20 00 00       	mov    $0x2000,%ecx
 804981b:	8d 94 24 4c 20 00 00 	lea    0x204c(%esp),%edx
 8049822:	8d 44 24 40          	lea    0x40(%esp),%eax
 8049826:	e8 b6 fa ff ff       	call   80492e1 <rio_readlineb>
 804982b:	85 c0                	test   %eax,%eax
 804982d:	7f 7d                	jg     80498ac <submitr+0x4f7>
 804982f:	8b 44 24 18          	mov    0x18(%esp),%eax
 8049833:	c7 00 45 72 72 6f    	movl   $0x6f727245,(%eax)
 8049839:	c7 40 04 72 3a 20 43 	movl   $0x43203a72,0x4(%eax)
 8049840:	c7 40 08 6c 69 65 6e 	movl   $0x6e65696c,0x8(%eax)
 8049847:	c7 40 0c 74 20 75 6e 	movl   $0x6e752074,0xc(%eax)
 804984e:	c7 40 10 61 62 6c 65 	movl   $0x656c6261,0x10(%eax)
 8049855:	c7 40 14 20 74 6f 20 	movl   $0x206f7420,0x14(%eax)
 804985c:	c7 40 18 72 65 61 64 	movl   $0x64616572,0x18(%eax)
 8049863:	c7 40 1c 20 66 69 72 	movl   $0x72696620,0x1c(%eax)
 804986a:	c7 40 20 73 74 20 68 	movl   $0x68207473,0x20(%eax)
 8049871:	c7 40 24 65 61 64 65 	movl   $0x65646165,0x24(%eax)
 8049878:	c7 40 28 72 20 66 72 	movl   $0x72662072,0x28(%eax)
 804987f:	c7 40 2c 6f 6d 20 73 	movl   $0x73206d6f,0x2c(%eax)
 8049886:	c7 40 30 65 72 76 65 	movl   $0x65767265,0x30(%eax)
 804988d:	66 c7 40 34 72 00    	movw   $0x72,0x34(%eax)
 8049893:	83 ec 0c             	sub    $0xc,%esp
 8049896:	ff 74 24 14          	pushl  0x14(%esp)
 804989a:	e8 01 f0 ff ff       	call   80488a0 <close@plt>
 804989f:	83 c4 10             	add    $0x10,%esp
 80498a2:	b8 ff ff ff ff       	mov    $0xffffffff,%eax
 80498a7:	e9 0b 02 00 00       	jmp    8049ab7 <submitr+0x702>
 80498ac:	83 ec 0c             	sub    $0xc,%esp
 80498af:	8d 84 24 58 80 00 00 	lea    0x8058(%esp),%eax
 80498b6:	50                   	push   %eax
 80498b7:	8d 44 24 3c          	lea    0x3c(%esp),%eax
 80498bb:	50                   	push   %eax
 80498bc:	8d 84 24 60 60 00 00 	lea    0x6060(%esp),%eax
 80498c3:	50                   	push   %eax
 80498c4:	68 7b a3 04 08       	push   $0x804a37b
 80498c9:	8d 84 24 68 20 00 00 	lea    0x2068(%esp),%eax
 80498d0:	50                   	push   %eax
 80498d1:	e8 3a ef ff ff       	call   8048810 <__isoc99_sscanf@plt>
 80498d6:	8b 44 24 4c          	mov    0x4c(%esp),%eax
 80498da:	83 c4 20             	add    $0x20,%esp
 80498dd:	3d c8 00 00 00       	cmp    $0xc8,%eax
 80498e2:	0f 84 c4 00 00 00    	je     80499ac <submitr+0x5f7>
 80498e8:	83 ec 08             	sub    $0x8,%esp
 80498eb:	8d 94 24 54 80 00 00 	lea    0x8054(%esp),%edx
 80498f2:	52                   	push   %edx
 80498f3:	50                   	push   %eax
 80498f4:	68 8c a2 04 08       	push   $0x804a28c
 80498f9:	6a ff                	push   $0xffffffff
 80498fb:	6a 01                	push   $0x1
 80498fd:	ff 74 24 34          	pushl  0x34(%esp)
 8049901:	e8 ba ef ff ff       	call   80488c0 <__sprintf_chk@plt>
 8049906:	83 c4 14             	add    $0x14,%esp
 8049909:	ff 74 24 14          	pushl  0x14(%esp)
 804990d:	e8 8e ef ff ff       	call   80488a0 <close@plt>
 8049912:	83 c4 10             	add    $0x10,%esp
 8049915:	b8 ff ff ff ff       	mov    $0xffffffff,%eax
 804991a:	e9 98 01 00 00       	jmp    8049ab7 <submitr+0x702>
 804991f:	b9 00 20 00 00       	mov    $0x2000,%ecx
 8049924:	8d 94 24 4c 20 00 00 	lea    0x204c(%esp),%edx
 804992b:	8d 44 24 40          	lea    0x40(%esp),%eax
 804992f:	e8 ad f9 ff ff       	call   80492e1 <rio_readlineb>
 8049934:	85 c0                	test   %eax,%eax
 8049936:	7f 74                	jg     80499ac <submitr+0x5f7>
 8049938:	8b 44 24 18          	mov    0x18(%esp),%eax
 804993c:	c7 00 45 72 72 6f    	movl   $0x6f727245,(%eax)
 8049942:	c7 40 04 72 3a 20 43 	movl   $0x43203a72,0x4(%eax)
 8049949:	c7 40 08 6c 69 65 6e 	movl   $0x6e65696c,0x8(%eax)
 8049950:	c7 40 0c 74 20 75 6e 	movl   $0x6e752074,0xc(%eax)
 8049957:	c7 40 10 61 62 6c 65 	movl   $0x656c6261,0x10(%eax)
 804995e:	c7 40 14 20 74 6f 20 	movl   $0x206f7420,0x14(%eax)
 8049965:	c7 40 18 72 65 61 64 	movl   $0x64616572,0x18(%eax)
 804996c:	c7 40 1c 20 68 65 61 	movl   $0x61656820,0x1c(%eax)
 8049973:	c7 40 20 64 65 72 73 	movl   $0x73726564,0x20(%eax)
 804997a:	c7 40 24 20 66 72 6f 	movl   $0x6f726620,0x24(%eax)
 8049981:	c7 40 28 6d 20 73 65 	movl   $0x6573206d,0x28(%eax)
 8049988:	c7 40 2c 72 76 65 72 	movl   $0x72657672,0x2c(%eax)
 804998f:	c6 40 30 00          	movb   $0x0,0x30(%eax)
 8049993:	83 ec 0c             	sub    $0xc,%esp
 8049996:	ff 74 24 14          	pushl  0x14(%esp)
 804999a:	e8 01 ef ff ff       	call   80488a0 <close@plt>
 804999f:	83 c4 10             	add    $0x10,%esp
 80499a2:	b8 ff ff ff ff       	mov    $0xffffffff,%eax
 80499a7:	e9 0b 01 00 00       	jmp    8049ab7 <submitr+0x702>
 80499ac:	80 bc 24 4c 20 00 00 	cmpb   $0xd,0x204c(%esp)
 80499b3:	0d 
 80499b4:	0f 85 65 ff ff ff    	jne    804991f <submitr+0x56a>
 80499ba:	80 bc 24 4d 20 00 00 	cmpb   $0xa,0x204d(%esp)
 80499c1:	0a 
 80499c2:	0f 85 57 ff ff ff    	jne    804991f <submitr+0x56a>
 80499c8:	80 bc 24 4e 20 00 00 	cmpb   $0x0,0x204e(%esp)
 80499cf:	00 
 80499d0:	0f 85 49 ff ff ff    	jne    804991f <submitr+0x56a>
 80499d6:	b9 00 20 00 00       	mov    $0x2000,%ecx
 80499db:	8d 94 24 4c 20 00 00 	lea    0x204c(%esp),%edx
 80499e2:	8d 44 24 40          	lea    0x40(%esp),%eax
 80499e6:	e8 f6 f8 ff ff       	call   80492e1 <rio_readlineb>
 80499eb:	85 c0                	test   %eax,%eax
 80499ed:	7f 7b                	jg     8049a6a <submitr+0x6b5>
 80499ef:	8b 44 24 18          	mov    0x18(%esp),%eax
 80499f3:	c7 00 45 72 72 6f    	movl   $0x6f727245,(%eax)
 80499f9:	c7 40 04 72 3a 20 43 	movl   $0x43203a72,0x4(%eax)
 8049a00:	c7 40 08 6c 69 65 6e 	movl   $0x6e65696c,0x8(%eax)
 8049a07:	c7 40 0c 74 20 75 6e 	movl   $0x6e752074,0xc(%eax)
 8049a0e:	c7 40 10 61 62 6c 65 	movl   $0x656c6261,0x10(%eax)
 8049a15:	c7 40 14 20 74 6f 20 	movl   $0x206f7420,0x14(%eax)
 8049a1c:	c7 40 18 72 65 61 64 	movl   $0x64616572,0x18(%eax)
 8049a23:	c7 40 1c 20 73 74 61 	movl   $0x61747320,0x1c(%eax)
 8049a2a:	c7 40 20 74 75 73 20 	movl   $0x20737574,0x20(%eax)
 8049a31:	c7 40 24 6d 65 73 73 	movl   $0x7373656d,0x24(%eax)
 8049a38:	c7 40 28 61 67 65 20 	movl   $0x20656761,0x28(%eax)
 8049a3f:	c7 40 2c 66 72 6f 6d 	movl   $0x6d6f7266,0x2c(%eax)
 8049a46:	c7 40 30 20 73 65 72 	movl   $0x72657320,0x30(%eax)
 8049a4d:	c7 40 34 76 65 72 00 	movl   $0x726576,0x34(%eax)
 8049a54:	83 ec 0c             	sub    $0xc,%esp
 8049a57:	ff 74 24 14          	pushl  0x14(%esp)
 8049a5b:	e8 40 ee ff ff       	call   80488a0 <close@plt>
 8049a60:	83 c4 10             	add    $0x10,%esp
 8049a63:	b8 ff ff ff ff       	mov    $0xffffffff,%eax
 8049a68:	eb 4d                	jmp    8049ab7 <submitr+0x702>
 8049a6a:	83 ec 08             	sub    $0x8,%esp
 8049a6d:	8d 84 24 54 20 00 00 	lea    0x2054(%esp),%eax
 8049a74:	50                   	push   %eax
 8049a75:	8b 7c 24 24          	mov    0x24(%esp),%edi
 8049a79:	57                   	push   %edi
 8049a7a:	e8 21 ed ff ff       	call   80487a0 <strcpy@plt>
 8049a7f:	83 c4 04             	add    $0x4,%esp
 8049a82:	ff 74 24 14          	pushl  0x14(%esp)
 8049a86:	e8 15 ee ff ff       	call   80488a0 <close@plt>
 8049a8b:	0f b6 17             	movzbl (%edi),%edx
 8049a8e:	b8 4f 00 00 00       	mov    $0x4f,%eax
 8049a93:	83 c4 10             	add    $0x10,%esp
 8049a96:	29 d0                	sub    %edx,%eax
 8049a98:	75 13                	jne    8049aad <submitr+0x6f8>
 8049a9a:	0f b6 57 01          	movzbl 0x1(%edi),%edx
 8049a9e:	b8 4b 00 00 00       	mov    $0x4b,%eax
 8049aa3:	29 d0                	sub    %edx,%eax
 8049aa5:	75 06                	jne    8049aad <submitr+0x6f8>
 8049aa7:	0f b6 47 02          	movzbl 0x2(%edi),%eax
 8049aab:	f7 d8                	neg    %eax
 8049aad:	85 c0                	test   %eax,%eax
 8049aaf:	0f 95 c0             	setne  %al
 8049ab2:	0f b6 c0             	movzbl %al,%eax
 8049ab5:	f7 d8                	neg    %eax
 8049ab7:	8b bc 24 4c a0 00 00 	mov    0xa04c(%esp),%edi
 8049abe:	65 33 3d 14 00 00 00 	xor    %gs:0x14,%edi
 8049ac5:	0f 84 a9 00 00 00    	je     8049b74 <submitr+0x7bf>
 8049acb:	e9 9f 00 00 00       	jmp    8049b6f <submitr+0x7ba>
 8049ad0:	a1 bc a2 04 08       	mov    0x804a2bc,%eax
 8049ad5:	8b 7c 24 18          	mov    0x18(%esp),%edi
 8049ad9:	89 07                	mov    %eax,(%edi)
 8049adb:	a1 fb a2 04 08       	mov    0x804a2fb,%eax
 8049ae0:	89 47 3f             	mov    %eax,0x3f(%edi)
 8049ae3:	89 f8                	mov    %edi,%eax
 8049ae5:	83 c7 04             	add    $0x4,%edi
 8049ae8:	83 e7 fc             	and    $0xfffffffc,%edi
 8049aeb:	29 f8                	sub    %edi,%eax
 8049aed:	be bc a2 04 08       	mov    $0x804a2bc,%esi
 8049af2:	29 c6                	sub    %eax,%esi
 8049af4:	83 c0 43             	add    $0x43,%eax
 8049af7:	c1 e8 02             	shr    $0x2,%eax
 8049afa:	89 c1                	mov    %eax,%ecx
 8049afc:	f3 a5                	rep movsl %ds:(%esi),%es:(%edi)
 8049afe:	83 ec 0c             	sub    $0xc,%esp
 8049b01:	ff 74 24 14          	pushl  0x14(%esp)
 8049b05:	e8 96 ed ff ff       	call   80488a0 <close@plt>
 8049b0a:	83 c4 10             	add    $0x10,%esp
 8049b0d:	b8 ff ff ff ff       	mov    $0xffffffff,%eax
 8049b12:	eb a3                	jmp    8049ab7 <submitr+0x702>
 8049b14:	8d 84 24 4c 40 00 00 	lea    0x404c(%esp),%eax
 8049b1b:	50                   	push   %eax
 8049b1c:	ff 74 24 18          	pushl  0x18(%esp)
 8049b20:	ff 74 24 18          	pushl  0x18(%esp)
 8049b24:	ff 74 24 18          	pushl  0x18(%esp)
 8049b28:	68 00 a3 04 08       	push   $0x804a300
 8049b2d:	68 00 20 00 00       	push   $0x2000
 8049b32:	6a 01                	push   $0x1
 8049b34:	8d bc 24 68 20 00 00 	lea    0x2068(%esp),%edi
 8049b3b:	57                   	push   %edi
 8049b3c:	e8 7f ed ff ff       	call   80488c0 <__sprintf_chk@plt>
 8049b41:	b8 00 00 00 00       	mov    $0x0,%eax
 8049b46:	b9 ff ff ff ff       	mov    $0xffffffff,%ecx
 8049b4b:	f2 ae                	repnz scas %es:(%edi),%al
 8049b4d:	f7 d1                	not    %ecx
 8049b4f:	8d 79 ff             	lea    -0x1(%ecx),%edi
 8049b52:	83 c4 20             	add    $0x20,%esp
 8049b55:	89 fb                	mov    %edi,%ebx
 8049b57:	8d b4 24 4c 20 00 00 	lea    0x204c(%esp),%esi
 8049b5e:	8b 6c 24 08          	mov    0x8(%esp),%ebp
 8049b62:	85 ff                	test   %edi,%edi
 8049b64:	0f 85 00 fc ff ff    	jne    804976a <submitr+0x3b5>
 8049b6a:	e9 8f fc ff ff       	jmp    80497fe <submitr+0x449>
 8049b6f:	e8 1c ec ff ff       	call   8048790 <__stack_chk_fail@plt>
 8049b74:	81 c4 5c a0 00 00    	add    $0xa05c,%esp
 8049b7a:	5b                   	pop    %ebx
 8049b7b:	5e                   	pop    %esi
 8049b7c:	5f                   	pop    %edi
 8049b7d:	5d                   	pop    %ebp
 8049b7e:	c3                   	ret    

08049b7f <init_timeout>:
 8049b7f:	53                   	push   %ebx
 8049b80:	83 ec 08             	sub    $0x8,%esp
 8049b83:	8b 5c 24 10          	mov    0x10(%esp),%ebx
 8049b87:	85 db                	test   %ebx,%ebx
 8049b89:	74 24                	je     8049baf <init_timeout+0x30>
 8049b8b:	83 ec 08             	sub    $0x8,%esp
 8049b8e:	68 be 92 04 08       	push   $0x80492be
 8049b93:	6a 0e                	push   $0xe
 8049b95:	e8 c6 eb ff ff       	call   8048760 <signal@plt>
 8049b9a:	85 db                	test   %ebx,%ebx
 8049b9c:	b8 00 00 00 00       	mov    $0x0,%eax
 8049ba1:	0f 48 d8             	cmovs  %eax,%ebx
 8049ba4:	89 1c 24             	mov    %ebx,(%esp)
 8049ba7:	e8 d4 eb ff ff       	call   8048780 <alarm@plt>
 8049bac:	83 c4 10             	add    $0x10,%esp
 8049baf:	83 c4 08             	add    $0x8,%esp
 8049bb2:	5b                   	pop    %ebx
 8049bb3:	c3                   	ret    

08049bb4 <init_driver>:
 8049bb4:	57                   	push   %edi
 8049bb5:	56                   	push   %esi
 8049bb6:	53                   	push   %ebx
 8049bb7:	83 ec 28             	sub    $0x28,%esp
 8049bba:	8b 74 24 38          	mov    0x38(%esp),%esi
 8049bbe:	65 a1 14 00 00 00    	mov    %gs:0x14,%eax
 8049bc4:	89 44 24 24          	mov    %eax,0x24(%esp)
 8049bc8:	31 c0                	xor    %eax,%eax
 8049bca:	6a 01                	push   $0x1
 8049bcc:	6a 0d                	push   $0xd
 8049bce:	e8 8d eb ff ff       	call   8048760 <signal@plt>
 8049bd3:	83 c4 08             	add    $0x8,%esp
 8049bd6:	6a 01                	push   $0x1
 8049bd8:	6a 1d                	push   $0x1d
 8049bda:	e8 81 eb ff ff       	call   8048760 <signal@plt>
 8049bdf:	83 c4 08             	add    $0x8,%esp
 8049be2:	6a 01                	push   $0x1
 8049be4:	6a 1d                	push   $0x1d
 8049be6:	e8 75 eb ff ff       	call   8048760 <signal@plt>
 8049beb:	83 c4 0c             	add    $0xc,%esp
 8049bee:	6a 00                	push   $0x0
 8049bf0:	6a 01                	push   $0x1
 8049bf2:	6a 02                	push   $0x2
 8049bf4:	e8 57 ec ff ff       	call   8048850 <socket@plt>
 8049bf9:	83 c4 10             	add    $0x10,%esp
 8049bfc:	85 c0                	test   %eax,%eax
 8049bfe:	79 4e                	jns    8049c4e <init_driver+0x9a>
 8049c00:	c7 06 45 72 72 6f    	movl   $0x6f727245,(%esi)
 8049c06:	c7 46 04 72 3a 20 43 	movl   $0x43203a72,0x4(%esi)
 8049c0d:	c7 46 08 6c 69 65 6e 	movl   $0x6e65696c,0x8(%esi)
 8049c14:	c7 46 0c 74 20 75 6e 	movl   $0x6e752074,0xc(%esi)
 8049c1b:	c7 46 10 61 62 6c 65 	movl   $0x656c6261,0x10(%esi)
 8049c22:	c7 46 14 20 74 6f 20 	movl   $0x206f7420,0x14(%esi)
 8049c29:	c7 46 18 63 72 65 61 	movl   $0x61657263,0x18(%esi)
 8049c30:	c7 46 1c 74 65 20 73 	movl   $0x73206574,0x1c(%esi)
 8049c37:	c7 46 20 6f 63 6b 65 	movl   $0x656b636f,0x20(%esi)
 8049c3e:	66 c7 46 24 74 00    	movw   $0x74,0x24(%esi)
 8049c44:	b8 ff ff ff ff       	mov    $0xffffffff,%eax
 8049c49:	e9 1f 01 00 00       	jmp    8049d6d <init_driver+0x1b9>
 8049c4e:	89 c3                	mov    %eax,%ebx
 8049c50:	83 ec 0c             	sub    $0xc,%esp
 8049c53:	68 8c a3 04 08       	push   $0x804a38c
 8049c58:	e8 13 ec ff ff       	call   8048870 <gethostbyname@plt>
 8049c5d:	83 c4 10             	add    $0x10,%esp
 8049c60:	85 c0                	test   %eax,%eax
 8049c62:	75 6c                	jne    8049cd0 <init_driver+0x11c>
 8049c64:	c7 06 45 72 72 6f    	movl   $0x6f727245,(%esi)
 8049c6a:	c7 46 04 72 3a 20 44 	movl   $0x44203a72,0x4(%esi)
 8049c71:	c7 46 08 4e 53 20 69 	movl   $0x6920534e,0x8(%esi)
 8049c78:	c7 46 0c 73 20 75 6e 	movl   $0x6e752073,0xc(%esi)
 8049c7f:	c7 46 10 61 62 6c 65 	movl   $0x656c6261,0x10(%esi)
 8049c86:	c7 46 14 20 74 6f 20 	movl   $0x206f7420,0x14(%esi)
 8049c8d:	c7 46 18 72 65 73 6f 	movl   $0x6f736572,0x18(%esi)
 8049c94:	c7 46 1c 6c 76 65 20 	movl   $0x2065766c,0x1c(%esi)
 8049c9b:	c7 46 20 73 65 72 76 	movl   $0x76726573,0x20(%esi)
 8049ca2:	c7 46 24 65 72 20 61 	movl   $0x61207265,0x24(%esi)
 8049ca9:	c7 46 28 64 64 72 65 	movl   $0x65726464,0x28(%esi)
 8049cb0:	66 c7 46 2c 73 73    	movw   $0x7373,0x2c(%esi)
 8049cb6:	c6 46 2e 00          	movb   $0x0,0x2e(%esi)
 8049cba:	83 ec 0c             	sub    $0xc,%esp
 8049cbd:	53                   	push   %ebx
 8049cbe:	e8 dd eb ff ff       	call   80488a0 <close@plt>
 8049cc3:	83 c4 10             	add    $0x10,%esp
 8049cc6:	b8 ff ff ff ff       	mov    $0xffffffff,%eax
 8049ccb:	e9 9d 00 00 00       	jmp    8049d6d <init_driver+0x1b9>
 8049cd0:	8d 7c 24 0c          	lea    0xc(%esp),%edi
 8049cd4:	c7 44 24 0c 00 00 00 	movl   $0x0,0xc(%esp)
 8049cdb:	00 
 8049cdc:	c7 44 24 10 00 00 00 	movl   $0x0,0x10(%esp)
 8049ce3:	00 
 8049ce4:	c7 44 24 14 00 00 00 	movl   $0x0,0x14(%esp)
 8049ceb:	00 
 8049cec:	c7 44 24 18 00 00 00 	movl   $0x0,0x18(%esp)
 8049cf3:	00 
 8049cf4:	66 c7 44 24 0c 02 00 	movw   $0x2,0xc(%esp)
 8049cfb:	6a 0c                	push   $0xc
 8049cfd:	ff 70 0c             	pushl  0xc(%eax)
 8049d00:	8b 40 10             	mov    0x10(%eax),%eax
 8049d03:	ff 30                	pushl  (%eax)
 8049d05:	8d 44 24 1c          	lea    0x1c(%esp),%eax
 8049d09:	50                   	push   %eax
 8049d0a:	e8 c1 ea ff ff       	call   80487d0 <__memmove_chk@plt>
 8049d0f:	66 c7 44 24 1e 3b 6e 	movw   $0x6e3b,0x1e(%esp)
 8049d16:	83 c4 0c             	add    $0xc,%esp
 8049d19:	6a 10                	push   $0x10
 8049d1b:	57                   	push   %edi
 8049d1c:	53                   	push   %ebx
 8049d1d:	e8 6e eb ff ff       	call   8048890 <connect@plt>
 8049d22:	83 c4 10             	add    $0x10,%esp
 8049d25:	85 c0                	test   %eax,%eax
 8049d27:	79 2a                	jns    8049d53 <init_driver+0x19f>
 8049d29:	83 ec 0c             	sub    $0xc,%esp
 8049d2c:	68 8c a3 04 08       	push   $0x804a38c
 8049d31:	68 4c a3 04 08       	push   $0x804a34c
 8049d36:	6a ff                	push   $0xffffffff
 8049d38:	6a 01                	push   $0x1
 8049d3a:	56                   	push   %esi
 8049d3b:	e8 80 eb ff ff       	call   80488c0 <__sprintf_chk@plt>
 8049d40:	83 c4 14             	add    $0x14,%esp
 8049d43:	53                   	push   %ebx
 8049d44:	e8 57 eb ff ff       	call   80488a0 <close@plt>
 8049d49:	83 c4 10             	add    $0x10,%esp
 8049d4c:	b8 ff ff ff ff       	mov    $0xffffffff,%eax
 8049d51:	eb 1a                	jmp    8049d6d <init_driver+0x1b9>
 8049d53:	83 ec 0c             	sub    $0xc,%esp
 8049d56:	53                   	push   %ebx
 8049d57:	e8 44 eb ff ff       	call   80488a0 <close@plt>
 8049d5c:	66 c7 06 4f 4b       	movw   $0x4b4f,(%esi)
 8049d61:	c6 46 02 00          	movb   $0x0,0x2(%esi)
 8049d65:	83 c4 10             	add    $0x10,%esp
 8049d68:	b8 00 00 00 00       	mov    $0x0,%eax
 8049d6d:	8b 54 24 1c          	mov    0x1c(%esp),%edx
 8049d71:	65 33 15 14 00 00 00 	xor    %gs:0x14,%edx
 8049d78:	74 05                	je     8049d7f <init_driver+0x1cb>
 8049d7a:	e8 11 ea ff ff       	call   8048790 <__stack_chk_fail@plt>
 8049d7f:	83 c4 20             	add    $0x20,%esp
 8049d82:	5b                   	pop    %ebx
 8049d83:	5e                   	pop    %esi
 8049d84:	5f                   	pop    %edi
 8049d85:	c3                   	ret    

08049d86 <driver_post>:
 8049d86:	53                   	push   %ebx
 8049d87:	83 ec 08             	sub    $0x8,%esp
 8049d8a:	8b 44 24 10          	mov    0x10(%esp),%eax
 8049d8e:	8b 5c 24 1c          	mov    0x1c(%esp),%ebx
 8049d92:	83 7c 24 18 00       	cmpl   $0x0,0x18(%esp)
 8049d97:	74 26                	je     8049dbf <driver_post+0x39>
 8049d99:	83 ec 04             	sub    $0x4,%esp
 8049d9c:	ff 74 24 18          	pushl  0x18(%esp)
 8049da0:	68 9a a3 04 08       	push   $0x804a39a
 8049da5:	6a 01                	push   $0x1
 8049da7:	e8 94 ea ff ff       	call   8048840 <__printf_chk@plt>
 8049dac:	66 c7 03 4f 4b       	movw   $0x4b4f,(%ebx)
 8049db1:	c6 43 02 00          	movb   $0x0,0x2(%ebx)
 8049db5:	83 c4 10             	add    $0x10,%esp
 8049db8:	b8 00 00 00 00       	mov    $0x0,%eax
 8049dbd:	eb 3e                	jmp    8049dfd <driver_post+0x77>
 8049dbf:	85 c0                	test   %eax,%eax
 8049dc1:	74 2c                	je     8049def <driver_post+0x69>
 8049dc3:	80 38 00             	cmpb   $0x0,(%eax)
 8049dc6:	74 27                	je     8049def <driver_post+0x69>
 8049dc8:	83 ec 04             	sub    $0x4,%esp
 8049dcb:	53                   	push   %ebx
 8049dcc:	ff 74 24 1c          	pushl  0x1c(%esp)
 8049dd0:	68 b1 a3 04 08       	push   $0x804a3b1
 8049dd5:	50                   	push   %eax
 8049dd6:	68 b9 a3 04 08       	push   $0x804a3b9
 8049ddb:	68 6e 3b 00 00       	push   $0x3b6e
 8049de0:	68 8c a3 04 08       	push   $0x804a38c
 8049de5:	e8 cb f5 ff ff       	call   80493b5 <submitr>
 8049dea:	83 c4 20             	add    $0x20,%esp
 8049ded:	eb 0e                	jmp    8049dfd <driver_post+0x77>
 8049def:	66 c7 03 4f 4b       	movw   $0x4b4f,(%ebx)
 8049df4:	c6 43 02 00          	movb   $0x0,0x2(%ebx)
 8049df8:	b8 00 00 00 00       	mov    $0x0,%eax
 8049dfd:	83 c4 08             	add    $0x8,%esp
 8049e00:	5b                   	pop    %ebx
 8049e01:	c3                   	ret    
 8049e02:	66 90                	xchg   %ax,%ax
 8049e04:	66 90                	xchg   %ax,%ax
 8049e06:	66 90                	xchg   %ax,%ax
 8049e08:	66 90                	xchg   %ax,%ax
 8049e0a:	66 90                	xchg   %ax,%ax
 8049e0c:	66 90                	xchg   %ax,%ax
 8049e0e:	66 90                	xchg   %ax,%ax

08049e10 <__libc_csu_init>:
 8049e10:	55                   	push   %ebp
 8049e11:	57                   	push   %edi
 8049e12:	56                   	push   %esi
 8049e13:	53                   	push   %ebx
 8049e14:	e8 f7 ea ff ff       	call   8048910 <__x86.get_pc_thunk.bx>
 8049e19:	81 c3 e7 21 00 00    	add    $0x21e7,%ebx
 8049e1f:	83 ec 0c             	sub    $0xc,%esp
 8049e22:	8b 6c 24 20          	mov    0x20(%esp),%ebp
 8049e26:	8d b3 0c ff ff ff    	lea    -0xf4(%ebx),%esi
 8049e2c:	e8 c3 e8 ff ff       	call   80486f4 <_init>
 8049e31:	8d 83 08 ff ff ff    	lea    -0xf8(%ebx),%eax
 8049e37:	29 c6                	sub    %eax,%esi
 8049e39:	c1 fe 02             	sar    $0x2,%esi
 8049e3c:	85 f6                	test   %esi,%esi
 8049e3e:	74 25                	je     8049e65 <__libc_csu_init+0x55>
 8049e40:	31 ff                	xor    %edi,%edi
 8049e42:	8d b6 00 00 00 00    	lea    0x0(%esi),%esi
 8049e48:	83 ec 04             	sub    $0x4,%esp
 8049e4b:	ff 74 24 2c          	pushl  0x2c(%esp)
 8049e4f:	ff 74 24 2c          	pushl  0x2c(%esp)
 8049e53:	55                   	push   %ebp
 8049e54:	ff 94 bb 08 ff ff ff 	call   *-0xf8(%ebx,%edi,4)
 8049e5b:	83 c7 01             	add    $0x1,%edi
 8049e5e:	83 c4 10             	add    $0x10,%esp
 8049e61:	39 f7                	cmp    %esi,%edi
 8049e63:	75 e3                	jne    8049e48 <__libc_csu_init+0x38>
 8049e65:	83 c4 0c             	add    $0xc,%esp
 8049e68:	5b                   	pop    %ebx
 8049e69:	5e                   	pop    %esi
 8049e6a:	5f                   	pop    %edi
 8049e6b:	5d                   	pop    %ebp
 8049e6c:	c3                   	ret    
 8049e6d:	8d 76 00             	lea    0x0(%esi),%esi

08049e70 <__libc_csu_fini>:
 8049e70:	f3 c3                	repz ret 

Disassembly of section .fini:

08049e74 <_fini>:
 8049e74:	53                   	push   %ebx
 8049e75:	83 ec 08             	sub    $0x8,%esp
 8049e78:	e8 93 ea ff ff       	call   8048910 <__x86.get_pc_thunk.bx>
 8049e7d:	81 c3 83 21 00 00    	add    $0x2183,%ebx
 8049e83:	83 c4 08             	add    $0x8,%esp
 8049e86:	5b                   	pop    %ebx
 8049e87:	c3                   	ret    
